ccopy_reg
_reconstructor
p0
(cpandas.core.series
Series
p1
c__builtin__
object
p2
Ntp3
Rp4
(dp5
S'_metadata'
p6
(lp7
S'name'
p8
asS'_data'
p9
g0
(cpandas.core.internals
SingleBlockManager
p10
g2
Ntp11
Rp12
((lp13
cpandas.core.indexes.base
_new_Index
p14
(cpandas.core.indexes.numeric
Int64Index
p15
(dp16
S'data'
p17
cnumpy.core.multiarray
_reconstruct
p18
(cnumpy
ndarray
p19
(I0
tp20
S'b'
p21
tp22
Rp23
(I1
(I17
tp24
cnumpy
dtype
p25
(S'i8'
p26
I0
I1
tp27
Rp28
(I3
S'<'
p29
NNNI-1
I-1
I0
tp30
bI00
S'\x00\x00\x00\x00\x00\x00\x00\x00\x01\x00\x00\x00\x00\x00\x00\x00\n\x00\x00\x00\x00\x00\x00\x00\x0b\x00\x00\x00\x00\x00\x00\x00\x0c\x00\x00\x00\x00\x00\x00\x00\r\x00\x00\x00\x00\x00\x00\x00\x0e\x00\x00\x00\x00\x00\x00\x00\x0f\x00\x00\x00\x00\x00\x00\x00\x10\x00\x00\x00\x00\x00\x00\x00\x02\x00\x00\x00\x00\x00\x00\x00\x03\x00\x00\x00\x00\x00\x00\x00\x04\x00\x00\x00\x00\x00\x00\x00\x05\x00\x00\x00\x00\x00\x00\x00\x06\x00\x00\x00\x00\x00\x00\x00\x07\x00\x00\x00\x00\x00\x00\x00\x08\x00\x00\x00\x00\x00\x00\x00\t\x00\x00\x00\x00\x00\x00\x00'
p31
tp32
bsg8
Nstp33
Rp34
a(lp35
g18
(g19
(I0
tp36
g21
tp37
Rp38
(I1
(I17
tp39
g25
(S'O8'
p40
I0
I1
tp41
Rp42
(I3
S'|'
p43
NNNI-1
I-1
I63
tp44
bI00
(lp45
(dp46
V[5,3]
p47
V746.031746031746
p48
sV[21,3]
p49
V1451.3378684807255
p50
sV[20,3]
p51
V1052.1768707482993
p52
sV[19,2]
p53
V1535.668934240363
p54
sV[25,4]
p55
V3121.0204081632655
p56
sV[11,3]
p57
V1453.356009070295
p58
sV[24,2]
p59
V1020.2494331065759
p60
sV[18,4]
p61
V1034.4897959183675
p62
sV[14,5]
p63
V1900.6349206349207
p64
sV[3,1]
p65
V1101.4739229024945
p66
sV[0,7]
p67
V1211.700680272109
p68
sV[7,6]
p69
V1057.8684807256236
p70
sV[3,6]
p71
V2628.27664399093
p72
sV[1,1]
p73
V1091.496598639456
p74
sV[27,3]
p75
V1288.7981859410431
p76
sV[12,6]
p77
V1156.4625850340135
p78
sV[2,2]
p79
V651.0204081632653
p80
sV[4,0]
p81
V366.3945578231292
p82
sV[6,1]
p83
V1342.6303854875284
p84
sV[10,5]
p85
V984.6485260770975
p86
sV[8,3]
p87
V1269.1156462585034
p88
sV[29,4]
p89
V365.28344671201813
p90
sV[9,1]
p91
V1506.7120181405896
p92
sV[21,2]
p93
V1307.0068027210884
p94
sV[15,3]
p95
V1161.859410430839
p96
sV[18,3]
p97
V2064.2857142857147
p98
sV[8,0]
p99
V1011.156462585034
p100
sV[19,3]
p101
V1392.766439909297
p102
sV[25,3]
p103
V3360.204081632653
p104
sV[26,7]
p105
V1304.580498866213
p106
sV[5,2]
p107
V1255.0340136054424
p108
sV[21,6]
p109
V1887.0975056689342
p110
sV[16,6]
p111
V591.3378684807257
p112
sV[3,0]
p113
V779.9546485260771
p114
sV[0,4]
p115
V1369.8185941043084
p116
sV[20,0]
p117
V802.9931972789116
p118
sV[22,0]
p119
V1012.7210884353741
p120
sV[14,4]
p121
V2237.9591836734694
p122
sV[7,1]
p123
V1006.575963718821
p124
sV[11,0]
p125
V765.6916099773243
p126
sV[24,3]
p127
V1060.0226757369614
p128
sV[27,5]
p129
V1324.8072562358277
p130
sV[28,1]
p131
V1666.6439909297053
p132
sV[23,5]
p133
V1047.324263038549
p134
sV[1,0]
p135
V626.077097505669
p136
sV[16,5]
p137
V1770.6802721088434
p138
sV[17,6]
p139
V1650.907029478458
p140
sV[12,5]
p141
V1226.3492063492063
p142
sV[27,2]
p143
V1530.1133786848075
p144
sV[2,3]
p145
V684.1723356009071
p146
sV[22,4]
p147
V1393.7868480725624
p148
sV[29,3]
p149
V1156.2811791383222
p150
sV[4,1]
p151
V704.1723356009071
p152
sV[13,1]
p153
V1221.4285714285716
p154
sV[6,2]
p155
V1184.37641723356
p156
sV[26,6]
p157
V1258.7301587301588
p158
sV[10,4]
p159
V1380.1133786848072
p160
sV[9,0]
p161
V998.6167800453514
p162
sV[13,6]
p163
V767.1201814058957
p164
sV[16,2]
p165
V1294.2403628117913
p166
sV[5,5]
p167
V1204.7392290249431
p168
sV[8,5]
p169
V1158.0045351473923
p170
sV[0,1]
p171
V1727.324263038549
p172
sV[14,7]
p173
V1773.7414965986395
p174
sV[21,5]
p175
V1409.5011337868482
p176
sV[7,4]
p177
V859.2970521541951
p178
sV[17,3]
p179
V2301.360544217687
p180
sV[24,4]
p181
V988.7074829931973
p182
sV[18,6]
p183
V1292.2222222222222
p184
sV[13,5]
p185
V774.9659863945578
p186
sV[19,4]
p187
V1758.888888888889
p188
sV[1,2]
p189
V1203.9002267573696
p190
sV[20,5]
p191
V1259.3197278911566
p192
sV[11,4]
p193
V1014.7165532879818
p194
sV[12,0]
p195
V1440.6122448979593
p196
sV[27,1]
p197
V1166.5532879818595
p198
sV[28,5]
p199
V6748.730158730159
p200
sV[28,7]
p201
V2932.403628117914
p202
sV[2,0]
p203
V40.61224489795919
p204
sV[3,4]
p205
V1582.4943310657598
p206
sV[17,5]
p207
V1110.1360544217687
p208
sV[4,2]
p209
V690.748299319728
p210
sV[6,7]
p211
V1021.9501133786848
p212
sV[10,7]
p213
V1431.655328798186
p214
sV[15,2]
p215
V1266.5532879818595
p216
sV[9,3]
p217
V1288.7755102040817
p218
sV[14,6]
p219
V962.4489795918367
p220
sV[26,3]
p221
V986.5079365079365
p222
sV[15,4]
p223
V970.702947845805
p224
sV[29,6]
p225
V1199.8639455782313
p226
sV[13,7]
p227
V965.5782312925171
p228
sV[5,4]
p229
V1102.9024943310658
p230
sV[0,6]
p231
V1479.6371882086169
p232
sV[25,5]
p233
V3108.4807256235827
p234
sV[20,2]
p235
V906.1451247165533
p236
sV[18,5]
p237
V862.9705215419501
p238
sV[28,3]
p239
V2409.750566893424
p240
sV[21,4]
p241
V1383.1065759637188
p242
sV[11,2]
p243
V1305.3741496598639
p244
sV[24,5]
p245
V823.5374149659864
p246
sV[25,7]
p247
V2782.6984126984125
p248
sV[19,5]
p249
V1858.8888888888891
p250
sV[7,7]
p251
V1312.5850340136053
p252
sV[2,1]
p253
V875.1020408163266
p254
sV[3,7]
p255
V2119.2743764172337
p256
sV[23,3]
p257
V1380.2267573696145
p258
sV[6,0]
p259
V1022.4716553287982
p260
sV[23,2]
p261
V2343.6507936507937
p262
sV[12,3]
p263
V1524.716553287982
p264
sV[27,0]
p265
V1451.315192743764
p266
sV[17,1]
p267
V1350.6575963718822
p268
sV[16,3]
p269
V692.4716553287982
p270
sV[9,2]
p271
V1539.501133786848
p272
sV[4,3]
p273
V1003.1292517006802
p274
sV[26,5]
p275
V1088.7755102040817
p276
sV[29,5]
p277
V1109.7278911564624
p278
sV[8,2]
p279
V1039.7732426303855
p280
sV[15,5]
p281
V1171.4285714285716
p282
sV[17,2]
p283
V1515.3061224489797
p284
sV[0,3]
p285
V1355.578231292517
p286
sV[9,5]
p287
V1619.4557823129253
p288
sV[19,7]
p289
V1666.0090702947846
p290
sV[25,6]
p291
V3568.9115646258506
p292
sV[21,7]
p293
V1934.2857142857144
p294
sV[22,3]
p295
V1167.1655328798188
p296
sV[8,7]
p297
V1378.095238095238
p298
sV[18,0]
p299
V4786.326530612245
p300
sV[19,6]
p301
V1136.5306122448978
p302
sV[25,0]
p303
V1645.7369614512472
p304
sV[14,1]
p305
V1755.62358276644
p306
sV[3,5]
p307
V1678.095238095238
p308
sV[12,2]
p309
V1867.1655328798188
p310
sV[20,7]
p311
V664.3764172335601
p312
sV[23,1]
p313
V1195.668934240363
p314
sV[28,4]
p315
V5609.954648526077
p316
sV[6,5]
p317
V1345.7823129251701
p318
sV[7,3]
p319
V979.0702947845805
p320
sV[27,7]
p321
V920.1133786848072
p322
sV[26,1]
p323
V1276.5532879818595
p324
sV[1,5]
p325
V1085.4875283446713
p326
sV[4,4]
p327
V734.6485260770975
p328
sV[2,6]
p329
V716.530612244898
p330
sV[10,1]
p331
V1289.2517006802723
p332
sV[15,6]
p333
V1205.0340136054422
p334
sV[29,0]
p335
V619.8639455782313
p336
sV[13,4]
p337
V1108.43537414966
p338
sV[5,7]
p339
V1621.9954648526077
p340
sV[9,4]
p341
V2011.4739229024945
p342
sV[13,0]
p343
V589.2063492063492
p344
sV[22,7]
p345
V1269.8412698412699
p346
sV[24,7]
p347
V784.3764172335601
p348
sV[18,7]
p349
V2562.312925170068
p350
sV[8,4]
p351
V1149.2063492063492
p352
sV[0,0]
p353
V807.7551020408164
p354
sV[24,0]
p355
V605.7142857142858
p356
sV[11,5]
p357
V1127.392290249433
p358
sV[7,5]
p359
V859.7052154195012
p360
sV[20,4]
p361
V729.6598639455782
p362
sV[23,0]
p363
V1315.1473922902494
p364
sV[14,0]
p365
V1239.3650793650795
p366
sV[1,3]
p367
V1209.7278911564626
p368
sV[7,2]
p369
V1015.8276643990929
p370
sV[11,7]
p371
V1812.8798185941043
p372
sV[12,1]
p373
V2708.163265306123
p374
sV[27,6]
p375
V2375.419501133787
p376
sV[1,4]
p377
V1114.4217687074831
p378
sV[16,1]
p379
V1227.8684807256236
p380
sV[4,5]
p381
V1135.1927437641725
p382
sV[6,6]
p383
V1096.1904761904761
p384
sV[2,7]
p385
V528.8208616780046
p386
sV[15,7]
p387
V1369.4104308390022
p388
sV[29,7]
p389
V900.453514739229
p390
sV[10,0]
p391
V622.5850340136054
p392
sV[26,2]
p393
V1272.4036281179137
p394
sV[22,2]
p395
V1233.8321995464853
p396
sV[5,6]
p397
V1375.827664399093
p398
sV[15,0]
p399
V896.0544217687076
p400
sV[18,2]
p401
V1954.716553287982
p402
sV[17,4]
p403
V2059.5918367346935
p404
sV[8,1]
p405
V972.2675736961452
p406
sV[28,2]
p407
V2916.031746031746
p408
sV[5,1]
p409
V1158.7755102040817
p410
sV[21,1]
p411
V1864.6031746031747
p412
sV[0,5]
p413
V1148.0272108843537
p414
sV[22,6]
p415
V1141.7913832199547
p416
sV[14,3]
p417
V1524.5351473922904
p418
sV[19,0]
p419
V563.2653061224489
p420
sV[25,2]
p421
V2275.011337868481
p422
sV[20,1]
p423
V1097.9138321995465
p424
sV[23,6]
p425
V1264.716553287982
p426
sV[27,4]
p427
V1390.907029478458
p428
sV[28,6]
p429
V4734.897959183674
p430
sV[22,5]
p431
V1789.9319727891157
p432
sV[3,3]
p433
V1438.3673469387754
p434
sV[1,7]
p435
V2217.8684807256236
p436
sV[4,6]
p437
V599.6145124716553
p438
sV[2,4]
p439
V944.3310657596372
p440
sV[23,4]
p441
V1518.843537414966
p442
sV[10,3]
p443
V1355.3061224489795
p444
sV[6,3]
p445
V1036.9160997732426
p446
sV[17,0]
p447
V772.5396825396825
p448
sV[12,4]
p449
V1399.4784580498867
p450
sV[22,1]
p451
V1355.8956916099773
p452
sV[9,7]
p453
V804.013605442177
p454
sV[24,6]
p455
V772.9705215419501
p456
sV[11,1]
p457
V949.6598639455782
p458
sV[13,2]
p459
V915.124716553288
p460
sV[8,6]
p461
V1151.4739229024945
p462
sV[15,1]
p463
V1203.718820861678
p464
sV[0,2]
p465
V1724.126984126984
p466
sV[9,6]
p467
V1410.748299319728
p468
sV[16,4]
p469
V823.968253968254
p470
sV[5,0]
p471
V169.63718820861678
p472
sV[18,1]
p473
V1775.9863945578231
p474
sV[21,0]
p475
V967.5736961451248
p476
sV[25,1]
p477
V2531.541950113379
p478
sV[20,6]
p479
V719.9773242630386
p480
sV[19,1]
p481
V1632.358276643991
p482
sV[11,6]
p483
V1195.668934240363
p484
sV[24,1]
p485
V2375.2607709750564
p486
sV[3,2]
p487
V1075.3968253968253
p488
sV[14,2]
p489
V2087.5736961451244
p490
sV[16,0]
p491
V1758.4807256235829
p492
sV[4,7]
p493
V740.453514739229
p494
sV[28,0]
p495
V1235.7142857142858
p496
sV[6,4]
p497
V2009.9092970521544
p498
sV[7,0]
p499
V543.1972789115647
p500
sV[23,7]
p501
V926.3945578231293
p502
sV[10,2]
p503
V1036.0997732426304
p504
sV[16,7]
p505
V2435.419501133787
p506
sV[1,6]
p507
V1480.544217687075
p508
sV[10,6]
p509
V940.7709750566894
p510
sV[12,7]
p511
V1672.2902494331067
p512
sV[26,0]
p513
V1068.888888888889
p514
sV[29,1]
p515
V1041.904761904762
p516
sV[2,5]
p517
V687.6190476190477
p518
sV[29,2]
p519
V1059.4331065759636
p520
sV[26,4]
p521
V1101.1791383219957
p522
sV[17,7]
p523
V1064.3990929705217
p524
sV[13,3]
p525
V801.5873015873017
p526
sa(dp527
V[5,3]
p528
V4011.927437641724
p529
sV[21,3]
p530
V3659.954648526077
p531
sV[20,3]
p532
V2671.428571428571
p533
sV[19,2]
p534
V3321.451247165533
p535
sV[25,4]
p536
V5639.319727891157
p537
sV[11,3]
p538
V3291.2925170068024
p539
sV[24,2]
p540
V2456.4852607709754
p541
sV[18,4]
p542
V3063.1746031746034
p543
sV[14,5]
p544
V4100.861678004535
p545
sV[3,1]
p546
V2846.8027210884356
p547
sV[0,7]
p548
V3377.120181405896
p549
sV[7,6]
p550
V2275.736961451247
p551
sV[3,6]
p552
V4852.131519274376
p553
sV[1,1]
p554
V2755.215419501134
p555
sV[27,3]
p556
V3772.902494331066
p557
sV[12,6]
p558
V2701.360544217687
p559
sV[2,2]
p560
V2267.732426303855
p561
sV[4,0]
p562
V1359.183673469388
p563
sV[6,1]
p564
V2037.9591836734696
p565
sV[10,5]
p566
V2030.9523809523807
p567
sV[8,3]
p568
V2697.5056689342405
p569
sV[29,4]
p570
V2215.1927437641725
p571
sV[9,1]
p572
V2603.718820861678
p573
sV[21,2]
p574
V3206.2131519274376
p575
sV[15,3]
p576
V2370.566893424036
p577
sV[18,3]
p578
V4228.458049886622
p579
sV[8,0]
p580
V3136.0544217687075
p581
sV[19,3]
p582
V3068.140589569161
p583
sV[25,3]
p584
V5746.734693877551
p585
sV[26,7]
p586
V3601.08843537415
p587
sV[5,2]
p588
V3665.8049886621316
p589
sV[21,6]
p590
V4422.630385487529
p591
sV[16,6]
p592
V2121.882086167801
p593
sV[3,0]
p594
V1823.4013605442176
p595
sV[0,4]
p596
V3407.324263038549
p597
sV[20,0]
p598
V2472.018140589569
p599
sV[22,0]
p600
V2683.0158730158732
p601
sV[14,4]
p602
V4339.319727891157
p603
sV[7,1]
p604
V2005.170068027211
p605
sV[11,0]
p606
V2325.78231292517
p607
sV[24,3]
p608
V2111.201814058957
p609
sV[27,5]
p610
V2644.5124716553287
p611
sV[28,1]
p612
V3055.9637188208617
p613
sV[23,5]
p614
V2531.9727891156463
p615
sV[1,0]
p616
V2651.519274376417
p617
sV[16,5]
p618
V3432.6984126984125
p619
sV[17,6]
p620
V3929.1609977324265
p621
sV[12,5]
p622
V3114.0362811791383
p623
sV[27,2]
p624
V3427.5963718820863
p625
sV[2,3]
p626
V2596.3265306122453
p627
sV[22,4]
p628
V4855.555555555556
p629
sV[29,3]
p630
V2802.7437641723354
p631
sV[4,1]
p632
V2122.879818594104
p633
sV[13,1]
p634
V3388.5941043083903
p635
sV[6,2]
p636
V2404.8072562358275
p637
sV[26,6]
p638
V3696.2585034013605
p639
sV[10,4]
p640
V2902.2222222222226
p641
sV[9,0]
p642
V2070.861678004535
p643
sV[13,6]
p644
V2948.8208616780043
p645
sV[16,2]
p646
V2870.0680272108843
p647
sV[5,5]
p648
V3737.5963718820863
p649
sV[8,5]
p650
V2690.3628117913836
p651
sV[0,1]
p652
V4441.768707482994
p653
sV[14,7]
p654
V4218.412698412698
p655
sV[21,5]
p656
V3925.78231292517
p657
sV[7,4]
p658
V1991.2244897959183
p659
sV[17,3]
p660
V4124.489795918367
p661
sV[24,4]
p662
V1957.4149659863947
p663
sV[18,6]
p664
V3649.8185941043084
p665
sV[13,5]
p666
V2981.7233560090704
p667
sV[19,4]
p668
V3226.8934240362814
p669
sV[1,2]
p670
V2905.056689342404
p671
sV[20,5]
p672
V2966.6439909297055
p673
sV[11,4]
p674
V2687.573696145125
p675
sV[12,0]
p676
V2708.7074829931976
p677
sV[27,1]
p678
V3264.761904761905
p679
sV[28,5]
p680
V7904.7845804988665
p681
sV[28,7]
p682
V4973.922902494331
p683
sV[2,0]
p684
V631.9501133786848
p685
sV[3,4]
p686
V3357.7551020408164
p687
sV[17,5]
p688
V2443.7868480725624
p689
sV[4,2]
p690
V1987.7777777777778
p691
sV[6,7]
p692
V1695.4875283446713
p693
sV[10,7]
p694
V2582.9478458049884
p695
sV[15,2]
p696
V2582.108843537415
p697
sV[9,3]
p698
V2035.0566893424036
p699
sV[14,6]
p700
V2372.4716553287985
p701
sV[26,3]
p702
V2632.1315192743764
p703
sV[15,4]
p704
V2738.843537414966
p705
sV[29,6]
p706
V2790.3174603174607
p707
sV[13,7]
p708
V3119.183673469388
p709
sV[5,4]
p710
V3412.9478458049884
p711
sV[0,6]
p712
V3696.8027210884356
p713
sV[25,5]
p714
V5867.528344671202
p715
sV[20,2]
p716
V2633.8321995464853
p717
sV[18,5]
p718
V3544.0362811791383
p719
sV[28,3]
p720
V4363.9229024943315
p721
sV[21,4]
p722
V4353.718820861678
p723
sV[11,2]
p724
V3176.326530612245
p725
sV[24,5]
p726
V1613.8775510204082
p727
sV[25,7]
p728
V5340.748299319728
p729
sV[19,5]
p730
V3154.081632653061
p731
sV[7,7]
p732
V2115.46485260771
p733
sV[2,1]
p734
V2571.7233560090704
p735
sV[3,7]
p736
V4735.736961451247
p737
sV[23,3]
p738
V2943.786848072563
p739
sV[6,0]
p740
V1909.251700680272
p741
sV[23,2]
p742
V3899.6598639455783
p743
sV[12,3]
p744
V3318.2086167800453
p745
sV[27,0]
p746
V3521.315192743764
p747
sV[17,1]
p748
V2894.716553287982
p749
sV[16,3]
p750
V2337.3922902494332
p751
sV[9,2]
p752
V2322.5850340136053
p753
sV[4,3]
p754
V2372.1315192743764
p755
sV[26,5]
p756
V3222.312925170068
p757
sV[29,5]
p758
V2738.9569160997735
p759
sV[8,2]
p760
V2957.9138321995465
p761
sV[15,5]
p762
V2840.975056689342
p763
sV[17,2]
p764
V3157.369614512472
p765
sV[0,3]
p766
V3323.4240362811793
p767
sV[9,5]
p768
V2889.1609977324265
p769
sV[19,7]
p770
V4016.0317460317465
p771
sV[25,6]
p772
V6255.442176870749
p773
sV[21,7]
p774
V4808.866213151928
p775
sV[22,3]
p776
V8033.44671201814
p777
sV[8,7]
p778
V3460.6349206349205
p779
sV[18,0]
p780
V6808.866213151928
p781
sV[19,6]
p782
V2904.37641723356
p783
sV[25,0]
p784
V3615.736961451247
p785
sV[14,1]
p786
V4264.240362811791
p787
sV[3,5]
p788
V3348.480725623583
p789
sV[12,2]
p790
V3286.258503401361
p791
sV[20,7]
p792
V2392.9024943310656
p793
sV[23,1]
p794
V3074.6258503401364
p795
sV[28,4]
p796
V7354.172335600907
p797
sV[6,5]
p798
V2129.297052154195
p799
sV[7,3]
p800
V1933.3786848072564
p801
sV[27,7]
p802
V2983.469387755102
p803
sV[26,1]
p804
V3377.641723356009
p805
sV[1,5]
p806
V2989.8185941043084
p807
sV[4,4]
p808
V2061.609977324263
p809
sV[2,6]
p810
V2872.698412698413
p811
sV[10,1]
p812
V2379.546485260771
p813
sV[15,6]
p814
V2997.8231292517007
p815
sV[29,0]
p816
V1914.3990929705217
p817
sV[13,4]
p818
V3195.3968253968255
p819
sV[5,7]
p820
V4009.4104308390024
p821
sV[9,4]
p822
V5554.603174603175
p823
sV[13,0]
p824
V3221.065759637188
p825
sV[22,7]
p826
V3460.5215419501137
p827
sV[24,7]
p828
V1865.9183673469388
p829
sV[18,7]
p830
V4892.562358276644
p831
sV[8,4]
p832
V2698.095238095238
p833
sV[0,0]
p834
V3175.170068027211
p835
sV[24,0]
p836
V1728.9795918367347
p837
sV[11,5]
p838
V3967.369614512472
p839
sV[7,5]
p840
V2164.467120181406
p841
sV[20,4]
p842
V2855.46485260771
p843
sV[23,0]
p844
V3488.7301587301586
p845
sV[14,0]
p846
V3593.718820861678
p847
sV[1,3]
p848
V3401.1111111111113
p849
sV[7,2]
p850
V2033.3786848072561
p851
sV[11,7]
p852
V4232.81179138322
p853
sV[12,1]
p854
V4308.662131519274
p855
sV[27,6]
p856
V4079.886621315193
p857
sV[1,4]
p858
V3445.532879818594
p859
sV[16,1]
p860
V3133.764172335601
p861
sV[4,5]
p862
V2884.512471655329
p863
sV[6,6]
p864
V2077.2789115646256
p865
sV[2,7]
p866
V1622.1541950113378
p867
sV[15,7]
p868
V2633.8321995464853
p869
sV[29,7]
p870
V2755.4875283446713
p871
sV[10,0]
p872
V1584.5578231292516
p873
sV[26,2]
p874
V3423.4920634920636
p875
sV[22,2]
p876
V3926.077097505669
p877
sV[5,6]
p878
V3579.614512471655
p879
sV[15,0]
p880
V2583.5374149659865
p881
sV[18,2]
p882
V4045.0793650793653
p883
sV[17,4]
p884
V4062.358276643991
p885
sV[8,1]
p886
V2985.011337868481
p887
sV[28,2]
p888
V4923.854875283447
p889
sV[5,1]
p890
V3348.458049886621
p891
sV[21,1]
p892
V4493.74149659864
p893
sV[0,5]
p894
V3959.501133786848
p895
sV[22,6]
p896
V2945.6916099773243
p897
sV[14,3]
p898
V3385.124716553288
p899
sV[19,0]
p900
V1610.0453514739231
p901
sV[25,2]
p902
V4645.011337868481
p903
sV[20,1]
p904
V2975.736961451247
p905
sV[23,6]
p906
V3347.256235827664
p907
sV[27,4]
p908
V2910.453514739229
p909
sV[28,6]
p910
V6473.718820861678
p911
sV[22,5]
p912
V3463.2426303854877
p913
sV[3,3]
p914
V3969.6145124716554
p915
sV[1,7]
p916
V4060.2267573696145
p917
sV[4,6]
p918
V2303.0839002267576
p919
sV[2,4]
p920
V3120.453514739229
p921
sV[23,4]
p922
V3782.857142857143
p923
sV[10,3]
p924
V3637.5510204081634
p925
sV[6,3]
p926
V1632.108843537415
p927
sV[17,0]
p928
V2660.045351473923
p929
sV[12,4]
p930
V2516.462585034014
p931
sV[22,1]
p932
V2790.15873015873
p933
sV[9,7]
p934
V1647.641723356009
p935
sV[24,6]
p936
V1922.4489795918366
p937
sV[11,1]
p938
V3232.7664399092973
p939
sV[13,2]
p940
V3109.7732426303855
p941
sV[8,6]
p942
V3061.496598639456
p943
sV[15,1]
p944
V2859.6145124716554
p945
sV[0,2]
p946
V3362.199546485261
p947
sV[9,6]
p948
V2595.555555555555
p949
sV[16,4]
p950
V2733.8548752834467
p951
sV[5,0]
p952
V1860.5895691609978
p953
sV[18,1]
p954
V4808.390022675737
p955
sV[21,0]
p956
V2122.925170068027
p957
sV[25,1]
p958
V5532.335600907029
p959
sV[20,6]
p960
V2553.4920634920636
p961
sV[19,1]
p962
V2977.2562358276646
p963
sV[11,6]
p964
V2383.7414965986395
p965
sV[24,1]
p966
V3449.387755102041
p967
sV[3,2]
p968
V3771.609977324263
p969
sV[14,2]
p970
V4481.950113378684
p971
sV[16,0]
p972
V3294.013605442177
p973
sV[4,7]
p974
V2374.5578231292516
p975
sV[28,0]
p976
V3327.1882086167802
p977
sV[6,4]
p978
V2869.3197278911566
p979
sV[7,0]
p980
V1990.2267573696147
p981
sV[23,7]
p982
V2341.24716553288
p983
sV[10,2]
p984
V2936.031746031746
p985
sV[16,7]
p986
V4203.1292517006805
p987
sV[1,6]
p988
V3339.433106575964
p989
sV[10,6]
p990
V2477.120181405896
p991
sV[12,7]
p992
V3676.8934240362814
p993
sV[26,0]
p994
V3117.8004535147393
p995
sV[29,1]
p996
V2648.639455782313
p997
sV[2,5]
p998
V2650.476190476191
p999
sV[29,2]
p1000
V2802.9251700680275
p1001
sV[26,4]
p1002
V3345.124716553288
p1003
sV[17,7]
p1004
V3410.612244897959
p1005
sV[13,3]
p1006
V2443.5374149659865
p1007
sa(dp1008
V[5,3]
p1009
NsV[21,3]
p1010
NsV[20,3]
p1011
NsV[19,2]
p1012
NsV[25,4]
p1013
V33756.75736961451
p1014
sV[11,3]
p1015
V29576.031746031746
p1016
sV[24,2]
p1017
V25513.26530612245
p1018
sV[18,4]
p1019
V25097.709750566893
p1020
sV[14,5]
p1021
V35135.124716553284
p1022
sV[3,1]
p1023
V20720.362811791383
p1024
sV[0,7]
p1025
NsV[7,6]
p1026
NsV[3,6]
p1027
NsV[1,1]
p1028
V20322.65306122449
p1029
sV[27,3]
p1030
NsV[12,6]
p1031
NsV[2,2]
p1032
NsV[4,0]
p1033
NsV[6,1]
p1034
V33589.20634920635
p1035
sV[10,5]
p1036
NsV[8,3]
p1037
NsV[29,4]
p1038
NsV[9,1]
p1039
NsV[21,2]
p1040
NsV[15,3]
p1041
V18488.934240362814
p1042
sV[18,3]
p1043
V41576.87074829932
p1044
sV[8,0]
p1045
V27430.725623582766
p1046
sV[19,3]
p1047
NsV[25,3]
p1048
V31344.285714285714
p1049
sV[26,7]
p1050
V24338.798185941043
p1051
sV[5,2]
p1052
NsV[21,6]
p1053
NsV[16,6]
p1054
V23507.777777777777
p1055
sV[3,0]
p1056
V25319.95464852608
p1057
sV[0,4]
p1058
NsV[20,0]
p1059
V55250.27210884354
p1060
sV[22,0]
p1061
V26813.083900226757
p1062
sV[14,4]
p1063
V34587.61904761905
p1064
sV[7,1]
p1065
NsV[11,0]
p1066
V24762.698412698413
p1067
sV[24,3]
p1068
V18252.04081632653
p1069
sV[27,5]
p1070
V22936.39455782313
p1071
sV[28,1]
p1072
V25168.231292517008
p1073
sV[23,5]
p1074
NsV[1,0]
p1075
V21480.884353741498
p1076
sV[16,5]
p1077
NsV[17,6]
p1078
NsV[12,5]
p1079
V43399.47845804988
p1080
sV[27,2]
p1081
V42826.39455782313
p1082
sV[2,3]
p1083
NsV[22,4]
p1084
V44095.941043083905
p1085
sV[29,3]
p1086
V20363.990929705218
p1087
sV[4,1]
p1088
NsV[13,1]
p1089
V26799.569160997733
p1090
sV[6,2]
p1091
V40041.49659863945
p1092
sV[26,6]
p1093
V26379.20634920635
p1094
sV[10,4]
p1095
NsV[9,0]
p1096
NsV[13,6]
p1097
NsV[16,2]
p1098
V29993.832199546487
p1099
sV[5,5]
p1100
V21907.93650793651
p1101
sV[8,5]
p1102
V20792.33560090703
p1103
sV[0,1]
p1104
V36902.65306122449
p1105
sV[14,7]
p1106
V22374.98866213152
p1107
sV[21,5]
p1108
NsV[7,4]
p1109
V18452.99319727891
p1110
sV[17,3]
p1111
V30292.1768707483
p1112
sV[24,4]
p1113
V25347.097505668935
p1114
sV[18,6]
p1115
V28131.496598639456
p1116
sV[13,5]
p1117
V22746.09977324263
p1118
sV[19,4]
p1119
V31213.65079365079
p1120
sV[1,2]
p1121
V20031.632653061228
p1122
sV[20,5]
p1123
NsV[11,4]
p1124
V26388.253968253972
p1125
sV[12,0]
p1126
V28042.018140589567
p1127
sV[27,1]
p1128
V37238.39002267574
p1129
sV[28,5]
p1130
NsV[28,7]
p1131
V31963.990929705215
p1132
sV[2,0]
p1133
NsV[3,4]
p1134
V20645.62358276644
p1135
sV[17,5]
p1136
V21910.544217687075
p1137
sV[4,2]
p1138
NsV[6,7]
p1139
V16887.709750566893
p1140
sV[10,7]
p1141
NsV[15,2]
p1142
NsV[9,3]
p1143
NsV[14,6]
p1144
V23642.131519274375
p1145
sV[26,3]
p1146
V23779.97732426304
p1147
sV[15,4]
p1148
V40191.42857142857
p1149
sV[29,6]
p1150
V19215.46485260771
p1151
sV[13,7]
p1152
NsV[5,4]
p1153
V21456.122448979593
p1154
sV[0,6]
p1155
V49380.158730158735
p1156
sV[25,5]
p1157
V30821.904761904763
p1158
sV[20,2]
p1159
NsV[18,5]
p1160
V37531.337868480725
p1161
sV[28,3]
p1162
V26736.802721088436
p1163
sV[21,4]
p1164
NsV[11,2]
p1165
V24331.224489795917
p1166
sV[24,5]
p1167
V30342.92517006803
p1168
sV[25,7]
p1169
V46445.26077097506
p1170
sV[19,5]
p1171
V34298.36734693877
p1172
sV[7,7]
p1173
NsV[2,1]
p1174
NsV[3,7]
p1175
V32831.70068027211
p1176
sV[23,3]
p1177
NsV[6,0]
p1178
V28738.934240362814
p1179
sV[23,2]
p1180
V51225.578231292515
p1181
sV[12,3]
p1182
NsV[27,0]
p1183
V21009.931972789116
p1184
sV[17,1]
p1185
V18654.081632653062
p1186
sV[16,3]
p1187
V20684.53514739229
p1188
sV[9,2]
p1189
NsV[4,3]
p1190
V27762.65306122449
p1191
sV[26,5]
p1192
V25824.172335600906
p1193
sV[29,5]
p1194
V16579.7052154195
p1195
sV[8,2]
p1196
NsV[15,5]
p1197
NsV[17,2]
p1198
NsV[0,3]
p1199
NsV[9,5]
p1200
V37392.811791383225
p1201
sV[19,7]
p1202
V22990.000000000004
p1203
sV[25,6]
p1204
V46773.44671201814
p1205
sV[21,7]
p1206
NsV[22,3]
p1207
V34185.986394557825
p1208
sV[8,7]
p1209
V22033.333333333336
p1210
sV[18,0]
p1211
V33757.2335600907
p1212
sV[19,6]
p1213
NsV[25,0]
p1214
V29743.877551020407
p1215
sV[14,1]
p1216
V27821.38321995465
p1217
sV[3,5]
p1218
V41443.945578231294
p1219
sV[12,2]
p1220
NsV[20,7]
p1221
NsV[23,1]
p1222
V22445.034013605444
p1223
sV[28,4]
p1224
NsV[6,5]
p1225
NsV[7,3]
p1226
NsV[27,7]
p1227
V20109.750566893425
p1228
sV[26,1]
p1229
V42036.8253968254
p1230
sV[1,5]
p1231
V24617.86848072562
p1232
sV[4,4]
p1233
NsV[2,6]
p1234
NsV[10,1]
p1235
NsV[15,6]
p1236
NsV[29,0]
p1237
V31891.08843537415
p1238
sV[13,4]
p1239
NsV[5,7]
p1240
NsV[9,4]
p1241
NsV[13,0]
p1242
NsV[22,7]
p1243
V32146.258503401365
p1244
sV[24,7]
p1245
V20291.74603174603
p1246
sV[18,7]
p1247
NsV[8,4]
p1248
NsV[0,0]
p1249
V31336.73469387755
p1250
sV[24,0]
p1251
V51337.86848072562
p1252
sV[11,5]
p1253
V30465.668934240362
p1254
sV[7,5]
p1255
V16930.544217687075
p1256
sV[20,4]
p1257
NsV[23,0]
p1258
V23229.0022675737
p1259
sV[14,0]
p1260
V21962.83446712018
p1261
sV[1,3]
p1262
V22930.18140589569
p1263
sV[7,2]
p1264
NsV[11,7]
p1265
V38000.884353741494
p1266
sV[12,1]
p1267
V30330.72562358277
p1268
sV[27,6]
p1269
V20885.48752834467
p1270
sV[1,4]
p1271
V23951.26984126984
p1272
sV[16,1]
p1273
V19764.149659863946
p1274
sV[4,5]
p1275
NsV[6,6]
p1276
V11463.356009070296
p1277
sV[2,7]
p1278
NsV[15,7]
p1279
NsV[29,7]
p1280
V22535.57823129252
p1281
sV[10,0]
p1282
V24972.063492063495
p1283
sV[26,2]
p1284
V24270.02267573696
p1285
sV[22,2]
p1286
V24840.566893424035
p1287
sV[5,6]
p1288
NsV[15,0]
p1289
V34767.91383219955
p1290
sV[18,2]
p1291
V25457.392290249434
p1292
sV[17,4]
p1293
V26906.825396825396
p1294
sV[8,1]
p1295
V19208.480725623584
p1296
sV[28,2]
p1297
NsV[5,1]
p1298
V40416.28117913832
p1299
sV[21,1]
p1300
V28639.863945578232
p1301
sV[0,5]
p1302
NsV[22,6]
p1303
V24465.32879818594
p1304
sV[14,3]
p1305
V27094.69387755102
p1306
sV[19,0]
p1307
V36896.73469387755
p1308
sV[25,2]
p1309
V30565.532879818595
p1310
sV[20,1]
p1311
NsV[23,6]
p1312
V26611.587301587304
p1313
sV[27,4]
p1314
V22299.070294784582
p1315
sV[28,6]
p1316
NsV[22,5]
p1317
V26722.33560090703
p1318
sV[3,3]
p1319
V57939.115646258506
p1320
sV[1,7]
p1321
V25150.022675736964
p1322
sV[4,6]
p1323
NsV[2,4]
p1324
V25857.21088435374
p1325
sV[23,4]
p1326
NsV[10,3]
p1327
NsV[6,3]
p1328
V13224.399092970521
p1329
sV[17,0]
p1330
V47028.07256235828
p1331
sV[12,4]
p1332
V33581.72335600907
p1333
sV[22,1]
p1334
V34996.621315192744
p1335
sV[9,7]
p1336
NsV[24,6]
p1337
NsV[11,1]
p1338
V31544.149659863946
p1339
sV[13,2]
p1340
V34983.67346938775
p1341
sV[8,6]
p1342
V26282.83446712018
p1343
sV[15,1]
p1344
NsV[0,2]
p1345
NsV[9,6]
p1346
NsV[16,4]
p1347
V28676.2358276644
p1348
sV[5,0]
p1349
NsV[18,1]
p1350
NsV[21,0]
p1351
NsV[25,1]
p1352
V36311.40589569161
p1353
sV[20,6]
p1354
NsV[19,1]
p1355
NsV[11,6]
p1356
V22920.136054421768
p1357
sV[24,1]
p1358
V21562.879818594105
p1359
sV[3,2]
p1360
V25375.55555555556
p1361
sV[14,2]
p1362
V36621.40589569161
p1363
sV[16,0]
p1364
V23551.337868480725
p1365
sV[4,7]
p1366
V24287.256235827666
p1367
sV[28,0]
p1368
NsV[6,4]
p1369
V16694.852607709752
p1370
sV[7,0]
p1371
V25317.91383219955
p1372
sV[23,7]
p1373
V19349.773242630385
p1374
sV[10,2]
p1375
V21396.689342403628
p1376
sV[16,7]
p1377
V22548.979591836734
p1378
sV[1,6]
p1379
V29399.773242630385
p1380
sV[10,6]
p1381
NsV[12,7]
p1382
NsV[26,0]
p1383
V37023.877551020414
p1384
sV[29,1]
p1385
NsV[2,5]
p1386
V24859.591836734693
p1387
sV[29,2]
p1388
V19063.537414965984
p1389
sV[26,4]
p1390
V26319.909297052156
p1391
sV[17,7]
p1392
NsV[13,3]
p1393
Nsa(dp1394
V[5,3]
p1395
NsV[21,3]
p1396
NsV[20,3]
p1397
NsV[19,2]
p1398
NsV[25,4]
p1399
NsV[11,3]
p1400
V42713.310657596376
p1401
sV[24,2]
p1402
V26426.12244897959
p1403
sV[18,4]
p1404
V27308.027210884353
p1405
sV[14,5]
p1406
V37365.102040816324
p1407
sV[3,1]
p1408
V37716.689342403624
p1409
sV[0,7]
p1410
NsV[7,6]
p1411
NsV[3,6]
p1412
NsV[1,1]
p1413
V22124.98866213152
p1414
sV[27,3]
p1415
NsV[12,6]
p1416
NsV[2,2]
p1417
NsV[4,0]
p1418
NsV[6,1]
p1419
V55250.725623582766
p1420
sV[10,5]
p1421
NsV[8,3]
p1422
NsV[29,4]
p1423
NsV[9,1]
p1424
NsV[21,2]
p1425
NsV[15,3]
p1426
V20123.74149659864
p1427
sV[18,3]
p1428
NsV[8,0]
p1429
V41280.793650793654
p1430
sV[19,3]
p1431
NsV[25,3]
p1432
V34564.60317460318
p1433
sV[26,7]
p1434
V29369.54648526077
p1435
sV[5,2]
p1436
NsV[21,6]
p1437
NsV[16,6]
p1438
V25403.015873015873
p1439
sV[3,0]
p1440
V26955.60090702948
p1441
sV[0,4]
p1442
NsV[20,0]
p1443
NsV[22,0]
p1444
V32583.85487528345
p1445
sV[14,4]
p1446
NsV[7,1]
p1447
NsV[11,0]
p1448
V27176.598639455784
p1449
sV[24,3]
p1450
V30620.317460317463
p1451
sV[27,5]
p1452
V31305.714285714286
p1453
sV[28,1]
p1454
V26751.451247165533
p1455
sV[23,5]
p1456
NsV[1,0]
p1457
V23639.95464852608
p1458
sV[16,5]
p1459
NsV[17,6]
p1460
NsV[12,5]
p1461
NsV[27,2]
p1462
NsV[2,3]
p1463
NsV[22,4]
p1464
V46213.922902494334
p1465
sV[29,3]
p1466
V30064.80725623583
p1467
sV[4,1]
p1468
NsV[13,1]
p1469
V47679.07029478458
p1470
sV[6,2]
p1471
V42005.487528344675
p1472
sV[26,6]
p1473
V29047.64172335601
p1474
sV[10,4]
p1475
NsV[9,0]
p1476
NsV[13,6]
p1477
NsV[16,2]
p1478
V34084.26303854876
p1479
sV[5,5]
p1480
V23993.197278911568
p1481
sV[8,5]
p1482
V22676.73469387755
p1483
sV[0,1]
p1484
V44921.22448979592
p1485
sV[14,7]
p1486
V25439.297052154194
p1487
sV[21,5]
p1488
NsV[7,4]
p1489
NsV[17,3]
p1490
V34111.08843537415
p1491
sV[24,4]
p1492
V31408.73015873016
p1493
sV[18,6]
p1494
V30767.029478458047
p1495
sV[13,5]
p1496
V53566.12244897959
p1497
sV[19,4]
p1498
V57015.034013605444
p1499
sV[1,2]
p1500
V24949.569160997733
p1501
sV[20,5]
p1502
NsV[11,4]
p1503
V33794.013605442175
p1504
sV[12,0]
p1505
V30158.004535147393
p1506
sV[27,1]
p1507
NsV[28,5]
p1508
NsV[28,7]
p1509
V58976.25850340136
p1510
sV[2,0]
p1511
NsV[3,4]
p1512
V29037.981859410433
p1513
sV[17,5]
p1514
V29753.061224489797
p1515
sV[4,2]
p1516
NsV[6,7]
p1517
V18638.276643990932
p1518
sV[10,7]
p1519
NsV[15,2]
p1520
NsV[9,3]
p1521
NsV[14,6]
p1522
V25382.06349206349
p1523
sV[26,3]
p1524
V26080.27210884354
p1525
sV[15,4]
p1526
V46190.589569161
p1527
sV[29,6]
p1528
V21128.63945578231
p1529
sV[13,7]
p1530
NsV[5,4]
p1531
V24207.34693877551
p1532
sV[0,6]
p1533
NsV[25,5]
p1534
V48511.70068027211
p1535
sV[20,2]
p1536
NsV[18,5]
p1537
NsV[28,3]
p1538
V28425.011337868484
p1539
sV[21,4]
p1540
NsV[11,2]
p1541
V26224.149659863946
p1542
sV[24,5]
p1543
NsV[25,7]
p1544
NsV[19,5]
p1545
V46520.61224489796
p1546
sV[7,7]
p1547
NsV[2,1]
p1548
NsV[3,7]
p1549
V34772.789115646265
p1550
sV[23,3]
p1551
NsV[6,0]
p1552
V43705.96371882086
p1553
sV[23,2]
p1554
NsV[12,3]
p1555
NsV[27,0]
p1556
V23033.492063492067
p1557
sV[17,1]
p1558
V25662.380952380954
p1559
sV[16,3]
p1560
V22328.73015873016
p1561
sV[9,2]
p1562
NsV[4,3]
p1563
V28824.648526077097
p1564
sV[26,5]
p1565
V27977.09750566893
p1566
sV[29,5]
p1567
V18387.868480725625
p1568
sV[8,2]
p1569
NsV[15,5]
p1570
NsV[17,2]
p1571
NsV[0,3]
p1572
NsV[9,5]
p1573
V41076.39455782313
p1574
sV[19,7]
p1575
V26024.263038548754
p1576
sV[25,6]
p1577
V49462.970521541945
p1578
sV[21,7]
p1579
NsV[22,3]
p1580
V37502.74376417234
p1581
sV[8,7]
p1582
NsV[18,0]
p1583
NsV[19,6]
p1584
NsV[25,0]
p1585
NsV[14,1]
p1586
V30548.684807256235
p1587
sV[3,5]
p1588
NsV[12,2]
p1589
NsV[20,7]
p1590
NsV[23,1]
p1591
V30640.113378684808
p1592
sV[28,4]
p1593
NsV[6,5]
p1594
NsV[7,3]
p1595
NsV[27,7]
p1596
V24353.174603174604
p1597
sV[26,1]
p1598
V46968.93424036281
p1599
sV[1,5]
p1600
V26922.19954648526
p1601
sV[4,4]
p1602
NsV[2,6]
p1603
NsV[10,1]
p1604
NsV[15,6]
p1605
NsV[29,0]
p1606
NsV[13,4]
p1607
NsV[5,7]
p1608
NsV[9,4]
p1609
NsV[13,0]
p1610
NsV[22,7]
p1611
V33811.836734693876
p1612
sV[24,7]
p1613
NsV[18,7]
p1614
NsV[8,4]
p1615
NsV[0,0]
p1616
NsV[24,0]
p1617
V53067.120181405895
p1618
sV[11,5]
p1619
NsV[7,5]
p1620
V19010.52154195011
p1621
sV[20,4]
p1622
NsV[23,0]
p1623
V27707.233560090703
p1624
sV[14,0]
p1625
V35157.34693877551
p1626
sV[1,3]
p1627
V24760.56689342404
p1628
sV[7,2]
p1629
NsV[11,7]
p1630
NsV[12,1]
p1631
V32513.968253968258
p1632
sV[27,6]
p1633
V22729.81859410431
p1634
sV[1,4]
p1635
V26014.852607709752
p1636
sV[16,1]
p1637
V25521.927437641727
p1638
sV[4,5]
p1639
NsV[6,6]
p1640
V12658.412698412698
p1641
sV[2,7]
p1642
NsV[15,7]
p1643
NsV[29,7]
p1644
V24117.68707482993
p1645
sV[10,0]
p1646
NsV[26,2]
p1647
V31229.750566893425
p1648
sV[22,2]
p1649
V26581.927437641723
p1650
sV[5,6]
p1651
NsV[15,0]
p1652
V45664.33106575964
p1653
sV[18,2]
p1654
V28185.260770975055
p1655
sV[17,4]
p1656
NsV[8,1]
p1657
V20742.15419501134
p1658
sV[28,2]
p1659
NsV[5,1]
p1660
NsV[21,1]
p1661
NsV[0,5]
p1662
NsV[22,6]
p1663
V26128.775510204083
p1664
sV[14,3]
p1665
V39270.249433106575
p1666
sV[19,0]
p1667
NsV[25,2]
p1668
NsV[20,1]
p1669
NsV[23,6]
p1670
V29223.197278911568
p1671
sV[27,4]
p1672
NsV[28,6]
p1673
NsV[22,5]
p1674
V32026.167800453513
p1675
sV[3,3]
p1676
NsV[1,7]
p1677
V26951.791383219956
p1678
sV[4,6]
p1679
NsV[2,4]
p1680
V31221.2925170068
p1681
sV[23,4]
p1682
NsV[10,3]
p1683
NsV[6,3]
p1684
V19167.233560090703
p1685
sV[17,0]
p1686
NsV[12,4]
p1687
NsV[22,1]
p1688
V53251.95011337868
p1689
sV[9,7]
p1690
NsV[24,6]
p1691
NsV[11,1]
p1692
NsV[13,2]
p1693
V42680.61224489796
p1694
sV[8,6]
p1695
V28718.25396825397
p1696
sV[15,1]
p1697
NsV[0,2]
p1698
NsV[9,6]
p1699
NsV[16,4]
p1700
V32349.115646258502
p1701
sV[5,0]
p1702
NsV[18,1]
p1703
NsV[21,0]
p1704
NsV[25,1]
p1705
V39060.18140589569
p1706
sV[20,6]
p1707
NsV[19,1]
p1708
NsV[11,6]
p1709
NsV[24,1]
p1710
NsV[3,2]
p1711
V27972.607709750566
p1712
sV[14,2]
p1713
V40783.0612244898
p1714
sV[16,0]
p1715
NsV[4,7]
p1716
NsV[28,0]
p1717
NsV[6,4]
p1718
V25304.331065759638
p1719
sV[7,0]
p1720
V46784.08163265306
p1721
sV[23,7]
p1722
V21263.65079365079
p1723
sV[10,2]
p1724
V29447.755102040817
p1725
sV[16,7]
p1726
V24810.430839002267
p1727
sV[1,6]
p1728
V31252.94784580499
p1729
sV[10,6]
p1730
NsV[12,7]
p1731
NsV[26,0]
p1732
V43044.12698412698
p1733
sV[29,1]
p1734
NsV[2,5]
p1735
NsV[29,2]
p1736
V38487.68707482993
p1737
sV[26,4]
p1738
V33220.06802721089
p1739
sV[17,7]
p1740
NsV[13,3]
p1741
Nsa(dp1742
V[5,3]
p1743
NsV[21,3]
p1744
NsV[20,3]
p1745
NsV[19,2]
p1746
NsV[25,4]
p1747
NsV[11,3]
p1748
V47258.594104308395
p1749
sV[24,2]
p1750
V33298.79818594104
p1751
sV[18,4]
p1752
NsV[14,5]
p1753
NsV[3,1]
p1754
NsV[0,7]
p1755
NsV[7,6]
p1756
NsV[3,6]
p1757
NsV[1,1]
p1758
V30100.0
p1759
sV[27,3]
p1760
NsV[12,6]
p1761
NsV[2,2]
p1762
NsV[4,0]
p1763
NsV[6,1]
p1764
NsV[10,5]
p1765
NsV[8,3]
p1766
NsV[29,4]
p1767
NsV[9,1]
p1768
NsV[21,2]
p1769
NsV[15,3]
p1770
V35029.97732426304
p1771
sV[18,3]
p1772
NsV[8,0]
p1773
V52927.68707482993
p1774
sV[19,3]
p1775
NsV[25,3]
p1776
V37833.49206349206
p1777
sV[26,7]
p1778
V32218.61678004535
p1779
sV[5,2]
p1780
NsV[21,6]
p1781
NsV[16,6]
p1782
V27401.224489795917
p1783
sV[3,0]
p1784
V28790.24943310658
p1785
sV[0,4]
p1786
NsV[20,0]
p1787
NsV[22,0]
p1788
NsV[14,4]
p1789
NsV[7,1]
p1790
NsV[11,0]
p1791
V29898.344671201816
p1792
sV[24,3]
p1793
NsV[27,5]
p1794
NsV[28,1]
p1795
NsV[23,5]
p1796
NsV[1,0]
p1797
V25493.12925170068
p1798
sV[16,5]
p1799
NsV[17,6]
p1800
NsV[12,5]
p1801
NsV[27,2]
p1802
NsV[2,3]
p1803
NsV[22,4]
p1804
V50303.06122448979
p1805
sV[29,3]
p1806
V40551.54195011338
p1807
sV[4,1]
p1808
NsV[13,1]
p1809
NsV[6,2]
p1810
V55064.82993197279
p1811
sV[26,6]
p1812
V31489.863945578232
p1813
sV[10,4]
p1814
NsV[9,0]
p1815
NsV[13,6]
p1816
NsV[16,2]
p1817
NsV[5,5]
p1818
V25819.591836734693
p1819
sV[8,5]
p1820
V24345.57823129252
p1821
sV[0,1]
p1822
V60159.95464852608
p1823
sV[14,7]
p1824
V39923.42403628118
p1825
sV[21,5]
p1826
NsV[7,4]
p1827
NsV[17,3]
p1828
NsV[24,4]
p1829
V33645.78231292517
p1830
sV[18,6]
p1831
NsV[13,5]
p1832
NsV[19,4]
p1833
NsV[1,2]
p1834
NsV[20,5]
p1835
NsV[11,4]
p1836
NsV[12,0]
p1837
V41178.0045351474
p1838
sV[27,1]
p1839
NsV[28,5]
p1840
NsV[28,7]
p1841
NsV[2,0]
p1842
NsV[3,4]
p1843
V30886.462585034013
p1844
sV[17,5]
p1845
V33619.95464852607
p1846
sV[4,2]
p1847
NsV[6,7]
p1848
NsV[10,7]
p1849
NsV[15,2]
p1850
NsV[9,3]
p1851
NsV[14,6]
p1852
V26959.886621315192
p1853
sV[26,3]
p1854
V29171.111111111113
p1855
sV[15,4]
p1856
NsV[29,6]
p1857
V22754.625850340137
p1858
sV[13,7]
p1859
NsV[5,4]
p1860
V26447.029478458047
p1861
sV[0,6]
p1862
NsV[25,5]
p1863
NsV[20,2]
p1864
NsV[18,5]
p1865
NsV[28,3]
p1866
NsV[21,4]
p1867
NsV[11,2]
p1868
V35222.08616780046
p1869
sV[24,5]
p1870
NsV[25,7]
p1871
NsV[19,5]
p1872
NsV[7,7]
p1873
NsV[2,1]
p1874
NsV[3,7]
p1875
V47103.15192743764
p1876
sV[23,3]
p1877
NsV[6,0]
p1878
NsV[23,2]
p1879
NsV[12,3]
p1880
NsV[27,0]
p1881
V28691.768707482992
p1882
sV[17,1]
p1883
V33712.01814058957
p1884
sV[16,3]
p1885
V26673.151927437644
p1886
sV[9,2]
p1887
NsV[4,3]
p1888
V37594.39909297052
p1889
sV[26,5]
p1890
V30758.68480725624
p1891
sV[29,5]
p1892
V23916.666666666668
p1893
sV[8,2]
p1894
NsV[15,5]
p1895
NsV[17,2]
p1896
NsV[0,3]
p1897
NsV[9,5]
p1898
V44189.297052154194
p1899
sV[19,7]
p1900
V27493.58276643991
p1901
sV[25,6]
p1902
NsV[21,7]
p1903
NsV[22,3]
p1904
V46838.86621315193
p1905
sV[8,7]
p1906
NsV[18,0]
p1907
NsV[19,6]
p1908
NsV[25,0]
p1909
NsV[14,1]
p1910
V33270.45351473923
p1911
sV[3,5]
p1912
NsV[12,2]
p1913
NsV[20,7]
p1914
NsV[23,1]
p1915
V35100.634920634926
p1916
sV[28,4]
p1917
NsV[6,5]
p1918
NsV[7,3]
p1919
NsV[27,7]
p1920
V33233.87755102041
p1921
sV[26,1]
p1922
V55098.45804988663
p1923
sV[1,5]
p1924
V41398.77551020408
p1925
sV[4,4]
p1926
NsV[2,6]
p1927
NsV[10,1]
p1928
NsV[15,6]
p1929
NsV[29,0]
p1930
NsV[13,4]
p1931
NsV[5,7]
p1932
NsV[9,4]
p1933
NsV[13,0]
p1934
NsV[22,7]
p1935
V48308.07256235828
p1936
sV[24,7]
p1937
NsV[18,7]
p1938
NsV[8,4]
p1939
NsV[0,0]
p1940
NsV[24,0]
p1941
V56068.84353741497
p1942
sV[11,5]
p1943
NsV[7,5]
p1944
V26477.233560090703
p1945
sV[20,4]
p1946
NsV[23,0]
p1947
V53089.09297052154
p1948
sV[14,0]
p1949
V59926.37188208617
p1950
sV[1,3]
p1951
V26479.84126984127
p1952
sV[7,2]
p1953
NsV[11,7]
p1954
NsV[12,1]
p1955
V48649.45578231293
p1956
sV[27,6]
p1957
V29791.927437641723
p1958
sV[1,4]
p1959
V28223.877551020407
p1960
sV[16,1]
p1961
V34366.34920634921
p1962
sV[4,5]
p1963
NsV[6,6]
p1964
NsV[2,7]
p1965
NsV[15,7]
p1966
NsV[29,7]
p1967
V26695.804988662134
p1968
sV[10,0]
p1969
NsV[26,2]
p1970
V34072.426303854874
p1971
sV[22,2]
p1972
V28602.63038548753
p1973
sV[5,6]
p1974
NsV[15,0]
p1975
NsV[18,2]
p1976
V38777.27891156463
p1977
sV[17,4]
p1978
NsV[8,1]
p1979
V22167.278911564626
p1980
sV[28,2]
p1981
NsV[5,1]
p1982
NsV[21,1]
p1983
NsV[0,5]
p1984
NsV[22,6]
p1985
V28375.30612244898
p1986
sV[14,3]
p1987
NsV[19,0]
p1988
NsV[25,2]
p1989
NsV[20,1]
p1990
NsV[23,6]
p1991
V31369.569160997733
p1992
sV[27,4]
p1993
NsV[28,6]
p1994
NsV[22,5]
p1995
V35178.34467120181
p1996
sV[3,3]
p1997
NsV[1,7]
p1998
V29517.95918367347
p1999
sV[4,6]
p2000
NsV[2,4]
p2001
NsV[23,4]
p2002
NsV[10,3]
p2003
NsV[6,3]
p2004
V21933.42403628118
p2005
sV[17,0]
p2006
NsV[12,4]
p2007
NsV[22,1]
p2008
NsV[9,7]
p2009
NsV[24,6]
p2010
NsV[11,1]
p2011
NsV[13,2]
p2012
V50318.43537414966
p2013
sV[8,6]
p2014
V30925.736961451246
p2015
sV[15,1]
p2016
NsV[0,2]
p2017
NsV[9,6]
p2018
NsV[16,4]
p2019
V45008.02721088436
p2020
sV[5,0]
p2021
NsV[18,1]
p2022
NsV[21,0]
p2023
NsV[25,1]
p2024
NsV[20,6]
p2025
NsV[19,1]
p2026
NsV[11,6]
p2027
NsV[24,1]
p2028
NsV[3,2]
p2029
V30017.664399092973
p2030
sV[14,2]
p2031
V43500.65759637188
p2032
sV[16,0]
p2033
NsV[4,7]
p2034
NsV[28,0]
p2035
NsV[6,4]
p2036
V30660.9977324263
p2037
sV[7,0]
p2038
V48049.20634920635
p2039
sV[23,7]
p2040
V23435.80498866213
p2041
sV[10,2]
p2042
V57707.93650793651
p2043
sV[16,7]
p2044
V26966.281179138325
p2045
sV[1,6]
p2046
NsV[10,6]
p2047
NsV[12,7]
p2048
NsV[26,0]
p2049
V47074.58049886621
p2050
sV[29,1]
p2051
NsV[2,5]
p2052
NsV[29,2]
p2053
NsV[26,4]
p2054
V36223.15192743764
p2055
sV[17,7]
p2056
NsV[13,3]
p2057
Nsa(dp2058
V[5,3]
p2059
NsV[21,3]
p2060
NsV[20,3]
p2061
NsV[19,2]
p2062
NsV[25,4]
p2063
NsV[11,3]
p2064
NsV[24,2]
p2065
V34783.310657596376
p2066
sV[18,4]
p2067
NsV[14,5]
p2068
NsV[3,1]
p2069
NsV[0,7]
p2070
NsV[7,6]
p2071
NsV[3,6]
p2072
NsV[1,1]
p2073
V31897.05215419501
p2074
sV[27,3]
p2075
NsV[12,6]
p2076
NsV[2,2]
p2077
NsV[4,0]
p2078
NsV[6,1]
p2079
NsV[10,5]
p2080
NsV[8,3]
p2081
NsV[29,4]
p2082
NsV[9,1]
p2083
NsV[21,2]
p2084
NsV[15,3]
p2085
NsV[18,3]
p2086
NsV[8,0]
p2087
NsV[19,3]
p2088
NsV[25,3]
p2089
V41058.77551020408
p2090
sV[26,7]
p2091
V42646.37188208617
p2092
sV[5,2]
p2093
NsV[21,6]
p2094
NsV[16,6]
p2095
NsV[3,0]
p2096
V36706.57596371882
p2097
sV[0,4]
p2098
NsV[20,0]
p2099
NsV[22,0]
p2100
NsV[14,4]
p2101
NsV[7,1]
p2102
NsV[11,0]
p2103
V33701.47392290249
p2104
sV[24,3]
p2105
NsV[27,5]
p2106
NsV[28,1]
p2107
NsV[23,5]
p2108
NsV[1,0]
p2109
NsV[16,5]
p2110
NsV[17,6]
p2111
NsV[12,5]
p2112
NsV[27,2]
p2113
NsV[2,3]
p2114
NsV[22,4]
p2115
NsV[29,3]
p2116
NsV[4,1]
p2117
NsV[13,1]
p2118
NsV[6,2]
p2119
NsV[26,6]
p2120
V38118.820861678
p2121
sV[10,4]
p2122
NsV[9,0]
p2123
NsV[13,6]
p2124
NsV[16,2]
p2125
NsV[5,5]
p2126
NsV[8,5]
p2127
V26385.9410430839
p2128
sV[0,1]
p2129
NsV[14,7]
p2130
NsV[21,5]
p2131
NsV[7,4]
p2132
NsV[17,3]
p2133
NsV[24,4]
p2134
V34578.707482993195
p2135
sV[18,6]
p2136
NsV[13,5]
p2137
NsV[19,4]
p2138
NsV[1,2]
p2139
NsV[20,5]
p2140
NsV[11,4]
p2141
NsV[12,0]
p2142
NsV[27,1]
p2143
NsV[28,5]
p2144
NsV[28,7]
p2145
NsV[2,0]
p2146
NsV[3,4]
p2147
V33294.0589569161
p2148
sV[17,5]
p2149
V45541.4739229025
p2150
sV[4,2]
p2151
NsV[6,7]
p2152
NsV[10,7]
p2153
NsV[15,2]
p2154
NsV[9,3]
p2155
NsV[14,6]
p2156
V30303.42403628118
p2157
sV[26,3]
p2158
V31820.907029478458
p2159
sV[15,4]
p2160
NsV[29,6]
p2161
NsV[13,7]
p2162
NsV[5,4]
p2163
V31787.505668934242
p2164
sV[0,6]
p2165
NsV[25,5]
p2166
NsV[20,2]
p2167
NsV[18,5]
p2168
NsV[28,3]
p2169
NsV[21,4]
p2170
NsV[11,2]
p2171
NsV[24,5]
p2172
NsV[25,7]
p2173
NsV[19,5]
p2174
NsV[7,7]
p2175
NsV[2,1]
p2176
NsV[3,7]
p2177
V49262.22222222222
p2178
sV[23,3]
p2179
NsV[6,0]
p2180
NsV[23,2]
p2181
NsV[12,3]
p2182
NsV[27,0]
p2183
NsV[17,1]
p2184
NsV[16,3]
p2185
V32792.56235827665
p2186
sV[9,2]
p2187
NsV[4,3]
p2188
NsV[26,5]
p2189
V33755.6462585034
p2190
sV[29,5]
p2191
NsV[8,2]
p2192
NsV[15,5]
p2193
NsV[17,2]
p2194
NsV[0,3]
p2195
NsV[9,5]
p2196
NsV[19,7]
p2197
V50890.09070294785
p2198
sV[25,6]
p2199
NsV[21,7]
p2200
NsV[22,3]
p2201
V49464.03628117914
p2202
sV[8,7]
p2203
NsV[18,0]
p2204
NsV[19,6]
p2205
NsV[25,0]
p2206
NsV[14,1]
p2207
V35383.62811791383
p2208
sV[3,5]
p2209
NsV[12,2]
p2210
NsV[20,7]
p2211
NsV[23,1]
p2212
NsV[28,4]
p2213
NsV[6,5]
p2214
NsV[7,3]
p2215
NsV[27,7]
p2216
NsV[26,1]
p2217
NsV[1,5]
p2218
V42996.417233560096
p2219
sV[4,4]
p2220
NsV[2,6]
p2221
NsV[10,1]
p2222
NsV[15,6]
p2223
NsV[29,0]
p2224
NsV[13,4]
p2225
NsV[5,7]
p2226
NsV[9,4]
p2227
NsV[13,0]
p2228
NsV[22,7]
p2229
V50810.27210884354
p2230
sV[24,7]
p2231
NsV[18,7]
p2232
NsV[8,4]
p2233
NsV[0,0]
p2234
NsV[24,0]
p2235
V58132.01814058957
p2236
sV[11,5]
p2237
NsV[7,5]
p2238
NsV[20,4]
p2239
NsV[23,0]
p2240
NsV[14,0]
p2241
NsV[1,3]
p2242
V28550.97505668934
p2243
sV[7,2]
p2244
NsV[11,7]
p2245
NsV[12,1]
p2246
NsV[27,6]
p2247
NsV[1,4]
p2248
V30351.72335600907
p2249
sV[16,1]
p2250
V42875.05668934241
p2251
sV[4,5]
p2252
NsV[6,6]
p2253
NsV[2,7]
p2254
NsV[15,7]
p2255
NsV[29,7]
p2256
V31344.78458049887
p2257
sV[10,0]
p2258
NsV[26,2]
p2259
V38405.623582766435
p2260
sV[22,2]
p2261
NsV[5,6]
p2262
NsV[15,0]
p2263
NsV[18,2]
p2264
NsV[17,4]
p2265
NsV[8,1]
p2266
V39741.11111111111
p2267
sV[28,2]
p2268
NsV[5,1]
p2269
NsV[21,1]
p2270
NsV[0,5]
p2271
NsV[22,6]
p2272
V36695.35147392291
p2273
sV[14,3]
p2274
NsV[19,0]
p2275
NsV[25,2]
p2276
NsV[20,1]
p2277
NsV[23,6]
p2278
NsV[27,4]
p2279
NsV[28,6]
p2280
NsV[22,5]
p2281
V47793.0612244898
p2282
sV[3,3]
p2283
NsV[1,7]
p2284
V31227.95918367347
p2285
sV[4,6]
p2286
NsV[2,4]
p2287
NsV[23,4]
p2288
NsV[10,3]
p2289
NsV[6,3]
p2290
V42806.75736961452
p2291
sV[17,0]
p2292
NsV[12,4]
p2293
NsV[22,1]
p2294
NsV[9,7]
p2295
NsV[24,6]
p2296
NsV[11,1]
p2297
NsV[13,2]
p2298
NsV[8,6]
p2299
NsV[15,1]
p2300
NsV[0,2]
p2301
NsV[9,6]
p2302
NsV[16,4]
p2303
V46525.41950113379
p2304
sV[5,0]
p2305
NsV[18,1]
p2306
NsV[21,0]
p2307
NsV[25,1]
p2308
NsV[20,6]
p2309
NsV[19,1]
p2310
NsV[11,6]
p2311
NsV[24,1]
p2312
NsV[3,2]
p2313
V31915.73696145125
p2314
sV[14,2]
p2315
V47733.333333333336
p2316
sV[16,0]
p2317
NsV[4,7]
p2318
NsV[28,0]
p2319
NsV[6,4]
p2320
V48043.21995464853
p2321
sV[7,0]
p2322
V49243.968253968254
p2323
sV[23,7]
p2324
V25191.247165532877
p2325
sV[10,2]
p2326
NsV[16,7]
p2327
V29072.90249433107
p2328
sV[1,6]
p2329
NsV[10,6]
p2330
NsV[12,7]
p2331
NsV[26,0]
p2332
NsV[29,1]
p2333
NsV[2,5]
p2334
NsV[29,2]
p2335
NsV[26,4]
p2336
V43278.20861678005
p2337
sV[17,7]
p2338
NsV[13,3]
p2339
Nsa(dp2340
V[5,3]
p2341
NsV[21,3]
p2342
NsV[20,3]
p2343
NsV[19,2]
p2344
NsV[25,4]
p2345
NsV[11,3]
p2346
NsV[24,2]
p2347
V42557.46031746032
p2348
sV[18,4]
p2349
NsV[14,5]
p2350
NsV[3,1]
p2351
NsV[0,7]
p2352
NsV[7,6]
p2353
NsV[3,6]
p2354
NsV[1,1]
p2355
NsV[27,3]
p2356
NsV[12,6]
p2357
NsV[2,2]
p2358
NsV[4,0]
p2359
NsV[6,1]
p2360
NsV[10,5]
p2361
NsV[8,3]
p2362
NsV[29,4]
p2363
NsV[9,1]
p2364
NsV[21,2]
p2365
NsV[15,3]
p2366
NsV[18,3]
p2367
NsV[8,0]
p2368
NsV[19,3]
p2369
NsV[25,3]
p2370
NsV[26,7]
p2371
NsV[5,2]
p2372
NsV[21,6]
p2373
NsV[16,6]
p2374
NsV[3,0]
p2375
NsV[0,4]
p2376
NsV[20,0]
p2377
NsV[22,0]
p2378
NsV[14,4]
p2379
NsV[7,1]
p2380
NsV[11,0]
p2381
V40653.19727891156
p2382
sV[24,3]
p2383
NsV[27,5]
p2384
NsV[28,1]
p2385
NsV[23,5]
p2386
NsV[1,0]
p2387
NsV[16,5]
p2388
NsV[17,6]
p2389
NsV[12,5]
p2390
NsV[27,2]
p2391
NsV[2,3]
p2392
NsV[22,4]
p2393
NsV[29,3]
p2394
NsV[4,1]
p2395
NsV[13,1]
p2396
NsV[6,2]
p2397
NsV[26,6]
p2398
V45914.48979591837
p2399
sV[10,4]
p2400
NsV[9,0]
p2401
NsV[13,6]
p2402
NsV[16,2]
p2403
NsV[5,5]
p2404
NsV[8,5]
p2405
V45436.30385487528
p2406
sV[0,1]
p2407
NsV[14,7]
p2408
NsV[21,5]
p2409
NsV[7,4]
p2410
NsV[17,3]
p2411
NsV[24,4]
p2412
NsV[18,6]
p2413
NsV[13,5]
p2414
NsV[19,4]
p2415
NsV[1,2]
p2416
NsV[20,5]
p2417
NsV[11,4]
p2418
NsV[12,0]
p2419
NsV[27,1]
p2420
NsV[28,5]
p2421
NsV[28,7]
p2422
NsV[2,0]
p2423
NsV[3,4]
p2424
NsV[17,5]
p2425
NsV[4,2]
p2426
NsV[6,7]
p2427
NsV[10,7]
p2428
NsV[15,2]
p2429
NsV[9,3]
p2430
NsV[14,6]
p2431
V35452.42630385488
p2432
sV[26,3]
p2433
V38169.79591836735
p2434
sV[15,4]
p2435
NsV[29,6]
p2436
NsV[13,7]
p2437
NsV[5,4]
p2438
NsV[0,6]
p2439
NsV[25,5]
p2440
NsV[20,2]
p2441
NsV[18,5]
p2442
NsV[28,3]
p2443
NsV[21,4]
p2444
NsV[11,2]
p2445
NsV[24,5]
p2446
NsV[25,7]
p2447
NsV[19,5]
p2448
NsV[7,7]
p2449
NsV[2,1]
p2450
NsV[3,7]
p2451
NsV[23,3]
p2452
NsV[6,0]
p2453
NsV[23,2]
p2454
NsV[12,3]
p2455
NsV[27,0]
p2456
NsV[17,1]
p2457
NsV[16,3]
p2458
NsV[9,2]
p2459
NsV[4,3]
p2460
NsV[26,5]
p2461
V40703.28798185941
p2462
sV[29,5]
p2463
NsV[8,2]
p2464
NsV[15,5]
p2465
NsV[17,2]
p2466
NsV[0,3]
p2467
NsV[9,5]
p2468
NsV[19,7]
p2469
V58420.8843537415
p2470
sV[25,6]
p2471
NsV[21,7]
p2472
NsV[22,3]
p2473
V56173.7641723356
p2474
sV[8,7]
p2475
NsV[18,0]
p2476
NsV[19,6]
p2477
NsV[25,0]
p2478
NsV[14,1]
p2479
NsV[3,5]
p2480
NsV[12,2]
p2481
NsV[20,7]
p2482
NsV[23,1]
p2483
NsV[28,4]
p2484
NsV[6,5]
p2485
NsV[7,3]
p2486
NsV[27,7]
p2487
NsV[26,1]
p2488
NsV[1,5]
p2489
V45114.98866213152
p2490
sV[4,4]
p2491
NsV[2,6]
p2492
NsV[10,1]
p2493
NsV[15,6]
p2494
NsV[29,0]
p2495
NsV[13,4]
p2496
NsV[5,7]
p2497
NsV[9,4]
p2498
NsV[13,0]
p2499
NsV[22,7]
p2500
NsV[24,7]
p2501
NsV[18,7]
p2502
NsV[8,4]
p2503
NsV[0,0]
p2504
NsV[24,0]
p2505
NsV[11,5]
p2506
NsV[7,5]
p2507
NsV[20,4]
p2508
NsV[23,0]
p2509
NsV[14,0]
p2510
NsV[1,3]
p2511
V30456.303854875285
p2512
sV[7,2]
p2513
NsV[11,7]
p2514
NsV[12,1]
p2515
NsV[27,6]
p2516
NsV[1,4]
p2517
V32279.25170068027
p2518
sV[16,1]
p2519
NsV[4,5]
p2520
NsV[6,6]
p2521
NsV[2,7]
p2522
NsV[15,7]
p2523
NsV[29,7]
p2524
V42339.97732426304
p2525
sV[10,0]
p2526
NsV[26,2]
p2527
V56300.56689342404
p2528
sV[22,2]
p2529
NsV[5,6]
p2530
NsV[15,0]
p2531
NsV[18,2]
p2532
NsV[17,4]
p2533
NsV[8,1]
p2534
V46547.68707482993
p2535
sV[28,2]
p2536
NsV[5,1]
p2537
NsV[21,1]
p2538
NsV[0,5]
p2539
NsV[22,6]
p2540
NsV[14,3]
p2541
NsV[19,0]
p2542
NsV[25,2]
p2543
NsV[20,1]
p2544
NsV[23,6]
p2545
NsV[27,4]
p2546
NsV[28,6]
p2547
NsV[22,5]
p2548
NsV[3,3]
p2549
NsV[1,7]
p2550
NsV[4,6]
p2551
NsV[2,4]
p2552
NsV[23,4]
p2553
NsV[10,3]
p2554
NsV[6,3]
p2555
NsV[17,0]
p2556
NsV[12,4]
p2557
NsV[22,1]
p2558
NsV[9,7]
p2559
NsV[24,6]
p2560
NsV[11,1]
p2561
NsV[13,2]
p2562
NsV[8,6]
p2563
NsV[15,1]
p2564
NsV[0,2]
p2565
NsV[9,6]
p2566
NsV[16,4]
p2567
V48854.399092970525
p2568
sV[5,0]
p2569
NsV[18,1]
p2570
NsV[21,0]
p2571
NsV[25,1]
p2572
NsV[20,6]
p2573
NsV[19,1]
p2574
NsV[11,6]
p2575
NsV[24,1]
p2576
NsV[3,2]
p2577
V33766.78004535147
p2578
sV[14,2]
p2579
NsV[16,0]
p2580
NsV[4,7]
p2581
NsV[28,0]
p2582
NsV[6,4]
p2583
NsV[7,0]
p2584
V52313.42403628118
p2585
sV[23,7]
p2586
V28976.37188208617
p2587
sV[10,2]
p2588
NsV[16,7]
p2589
V37507.80045351474
p2590
sV[1,6]
p2591
NsV[10,6]
p2592
NsV[12,7]
p2593
NsV[26,0]
p2594
NsV[29,1]
p2595
NsV[2,5]
p2596
NsV[29,2]
p2597
NsV[26,4]
p2598
NsV[17,7]
p2599
NsV[13,3]
p2600
Nsa(dp2601
V[5,3]
p2602
NsV[21,3]
p2603
NsV[20,3]
p2604
NsV[19,2]
p2605
NsV[25,4]
p2606
NsV[11,3]
p2607
NsV[24,2]
p2608
NsV[18,4]
p2609
NsV[14,5]
p2610
NsV[3,1]
p2611
NsV[0,7]
p2612
NsV[7,6]
p2613
NsV[3,6]
p2614
NsV[1,1]
p2615
NsV[27,3]
p2616
NsV[12,6]
p2617
NsV[2,2]
p2618
NsV[4,0]
p2619
NsV[6,1]
p2620
NsV[10,5]
p2621
NsV[8,3]
p2622
NsV[29,4]
p2623
NsV[9,1]
p2624
NsV[21,2]
p2625
NsV[15,3]
p2626
NsV[18,3]
p2627
NsV[8,0]
p2628
NsV[19,3]
p2629
NsV[25,3]
p2630
NsV[26,7]
p2631
NsV[5,2]
p2632
NsV[21,6]
p2633
NsV[16,6]
p2634
NsV[3,0]
p2635
NsV[0,4]
p2636
NsV[20,0]
p2637
NsV[22,0]
p2638
NsV[14,4]
p2639
NsV[7,1]
p2640
NsV[11,0]
p2641
NsV[24,3]
p2642
NsV[27,5]
p2643
NsV[28,1]
p2644
NsV[23,5]
p2645
NsV[1,0]
p2646
NsV[16,5]
p2647
NsV[17,6]
p2648
NsV[12,5]
p2649
NsV[27,2]
p2650
NsV[2,3]
p2651
NsV[22,4]
p2652
NsV[29,3]
p2653
NsV[4,1]
p2654
NsV[13,1]
p2655
NsV[6,2]
p2656
NsV[26,6]
p2657
V52169.93197278911
p2658
sV[10,4]
p2659
NsV[9,0]
p2660
NsV[13,6]
p2661
NsV[16,2]
p2662
NsV[5,5]
p2663
NsV[8,5]
p2664
NsV[0,1]
p2665
NsV[14,7]
p2666
NsV[21,5]
p2667
NsV[7,4]
p2668
NsV[17,3]
p2669
NsV[24,4]
p2670
NsV[18,6]
p2671
NsV[13,5]
p2672
NsV[19,4]
p2673
NsV[1,2]
p2674
NsV[20,5]
p2675
NsV[11,4]
p2676
NsV[12,0]
p2677
NsV[27,1]
p2678
NsV[28,5]
p2679
NsV[28,7]
p2680
NsV[2,0]
p2681
NsV[3,4]
p2682
NsV[17,5]
p2683
NsV[4,2]
p2684
NsV[6,7]
p2685
NsV[10,7]
p2686
NsV[15,2]
p2687
NsV[9,3]
p2688
NsV[14,6]
p2689
NsV[26,3]
p2690
V43300.13605442177
p2691
sV[15,4]
p2692
NsV[29,6]
p2693
NsV[13,7]
p2694
NsV[5,4]
p2695
NsV[0,6]
p2696
NsV[25,5]
p2697
NsV[20,2]
p2698
NsV[18,5]
p2699
NsV[28,3]
p2700
NsV[21,4]
p2701
NsV[11,2]
p2702
NsV[24,5]
p2703
NsV[25,7]
p2704
NsV[19,5]
p2705
NsV[7,7]
p2706
NsV[2,1]
p2707
NsV[3,7]
p2708
NsV[23,3]
p2709
NsV[6,0]
p2710
NsV[23,2]
p2711
NsV[12,3]
p2712
NsV[27,0]
p2713
NsV[17,1]
p2714
NsV[16,3]
p2715
NsV[9,2]
p2716
NsV[4,3]
p2717
NsV[26,5]
p2718
V42618.594104308395
p2719
sV[29,5]
p2720
NsV[8,2]
p2721
NsV[15,5]
p2722
NsV[17,2]
p2723
NsV[0,3]
p2724
NsV[9,5]
p2725
NsV[19,7]
p2726
NsV[25,6]
p2727
NsV[21,7]
p2728
NsV[22,3]
p2729
NsV[8,7]
p2730
NsV[18,0]
p2731
NsV[19,6]
p2732
NsV[25,0]
p2733
NsV[14,1]
p2734
NsV[3,5]
p2735
NsV[12,2]
p2736
NsV[20,7]
p2737
NsV[23,1]
p2738
NsV[28,4]
p2739
NsV[6,5]
p2740
NsV[7,3]
p2741
NsV[27,7]
p2742
NsV[26,1]
p2743
NsV[1,5]
p2744
V46699.50113378685
p2745
sV[4,4]
p2746
NsV[2,6]
p2747
NsV[10,1]
p2748
NsV[15,6]
p2749
NsV[29,0]
p2750
NsV[13,4]
p2751
NsV[5,7]
p2752
NsV[9,4]
p2753
NsV[13,0]
p2754
NsV[22,7]
p2755
NsV[24,7]
p2756
NsV[18,7]
p2757
NsV[8,4]
p2758
NsV[0,0]
p2759
NsV[24,0]
p2760
NsV[11,5]
p2761
NsV[7,5]
p2762
NsV[20,4]
p2763
NsV[23,0]
p2764
NsV[14,0]
p2765
NsV[1,3]
p2766
V32066.89342403628
p2767
sV[7,2]
p2768
NsV[11,7]
p2769
NsV[12,1]
p2770
NsV[27,6]
p2771
NsV[1,4]
p2772
V33768.185941043084
p2773
sV[16,1]
p2774
NsV[4,5]
p2775
NsV[6,6]
p2776
NsV[2,7]
p2777
NsV[15,7]
p2778
NsV[29,7]
p2779
NsV[10,0]
p2780
NsV[26,2]
p2781
NsV[22,2]
p2782
NsV[5,6]
p2783
NsV[15,0]
p2784
NsV[18,2]
p2785
NsV[17,4]
p2786
NsV[8,1]
p2787
V51545.66893424036
p2788
sV[28,2]
p2789
NsV[5,1]
p2790
NsV[21,1]
p2791
NsV[0,5]
p2792
NsV[22,6]
p2793
NsV[14,3]
p2794
NsV[19,0]
p2795
NsV[25,2]
p2796
NsV[20,1]
p2797
NsV[23,6]
p2798
NsV[27,4]
p2799
NsV[28,6]
p2800
NsV[22,5]
p2801
NsV[3,3]
p2802
NsV[1,7]
p2803
NsV[4,6]
p2804
NsV[2,4]
p2805
NsV[23,4]
p2806
NsV[10,3]
p2807
NsV[6,3]
p2808
NsV[17,0]
p2809
NsV[12,4]
p2810
NsV[22,1]
p2811
NsV[9,7]
p2812
NsV[24,6]
p2813
NsV[11,1]
p2814
NsV[13,2]
p2815
NsV[8,6]
p2816
NsV[15,1]
p2817
NsV[0,2]
p2818
NsV[9,6]
p2819
NsV[16,4]
p2820
NsV[5,0]
p2821
NsV[18,1]
p2822
NsV[21,0]
p2823
NsV[25,1]
p2824
NsV[20,6]
p2825
NsV[19,1]
p2826
NsV[11,6]
p2827
NsV[24,1]
p2828
NsV[3,2]
p2829
NsV[14,2]
p2830
NsV[16,0]
p2831
NsV[4,7]
p2832
NsV[28,0]
p2833
NsV[6,4]
p2834
NsV[7,0]
p2835
V52776.553287981864
p2836
sV[23,7]
p2837
NsV[10,2]
p2838
NsV[16,7]
p2839
NsV[1,6]
p2840
NsV[10,6]
p2841
NsV[12,7]
p2842
NsV[26,0]
p2843
NsV[29,1]
p2844
NsV[2,5]
p2845
NsV[29,2]
p2846
NsV[26,4]
p2847
NsV[17,7]
p2848
NsV[13,3]
p2849
Nsa(dp2850
V[5,3]
p2851
NsV[21,3]
p2852
NsV[20,3]
p2853
NsV[19,2]
p2854
NsV[25,4]
p2855
NsV[11,3]
p2856
NsV[24,2]
p2857
NsV[18,4]
p2858
NsV[14,5]
p2859
NsV[3,1]
p2860
NsV[0,7]
p2861
NsV[7,6]
p2862
NsV[3,6]
p2863
NsV[1,1]
p2864
NsV[27,3]
p2865
NsV[12,6]
p2866
NsV[2,2]
p2867
NsV[4,0]
p2868
NsV[6,1]
p2869
NsV[10,5]
p2870
NsV[8,3]
p2871
NsV[29,4]
p2872
NsV[9,1]
p2873
NsV[21,2]
p2874
NsV[15,3]
p2875
NsV[18,3]
p2876
NsV[8,0]
p2877
NsV[19,3]
p2878
NsV[25,3]
p2879
NsV[26,7]
p2880
NsV[5,2]
p2881
NsV[21,6]
p2882
NsV[16,6]
p2883
NsV[3,0]
p2884
NsV[0,4]
p2885
NsV[20,0]
p2886
NsV[22,0]
p2887
NsV[14,4]
p2888
NsV[7,1]
p2889
NsV[11,0]
p2890
NsV[24,3]
p2891
NsV[27,5]
p2892
NsV[28,1]
p2893
NsV[23,5]
p2894
NsV[1,0]
p2895
NsV[16,5]
p2896
NsV[17,6]
p2897
NsV[12,5]
p2898
NsV[27,2]
p2899
NsV[2,3]
p2900
NsV[22,4]
p2901
NsV[29,3]
p2902
NsV[4,1]
p2903
NsV[13,1]
p2904
NsV[6,2]
p2905
NsV[26,6]
p2906
NsV[10,4]
p2907
NsV[9,0]
p2908
NsV[13,6]
p2909
NsV[16,2]
p2910
NsV[5,5]
p2911
NsV[8,5]
p2912
NsV[0,1]
p2913
NsV[14,7]
p2914
NsV[21,5]
p2915
NsV[7,4]
p2916
NsV[17,3]
p2917
NsV[24,4]
p2918
NsV[18,6]
p2919
NsV[13,5]
p2920
NsV[19,4]
p2921
NsV[1,2]
p2922
NsV[20,5]
p2923
NsV[11,4]
p2924
NsV[12,0]
p2925
NsV[27,1]
p2926
NsV[28,5]
p2927
NsV[28,7]
p2928
NsV[2,0]
p2929
NsV[3,4]
p2930
NsV[17,5]
p2931
NsV[4,2]
p2932
NsV[6,7]
p2933
NsV[10,7]
p2934
NsV[15,2]
p2935
NsV[9,3]
p2936
NsV[14,6]
p2937
NsV[26,3]
p2938
NsV[15,4]
p2939
NsV[29,6]
p2940
NsV[13,7]
p2941
NsV[5,4]
p2942
NsV[0,6]
p2943
NsV[25,5]
p2944
NsV[20,2]
p2945
NsV[18,5]
p2946
NsV[28,3]
p2947
NsV[21,4]
p2948
NsV[11,2]
p2949
NsV[24,5]
p2950
NsV[25,7]
p2951
NsV[19,5]
p2952
NsV[7,7]
p2953
NsV[2,1]
p2954
NsV[3,7]
p2955
NsV[23,3]
p2956
NsV[6,0]
p2957
NsV[23,2]
p2958
NsV[12,3]
p2959
NsV[27,0]
p2960
NsV[17,1]
p2961
NsV[16,3]
p2962
NsV[9,2]
p2963
NsV[4,3]
p2964
NsV[26,5]
p2965
NsV[29,5]
p2966
NsV[8,2]
p2967
NsV[15,5]
p2968
NsV[17,2]
p2969
NsV[0,3]
p2970
NsV[9,5]
p2971
NsV[19,7]
p2972
NsV[25,6]
p2973
NsV[21,7]
p2974
NsV[22,3]
p2975
NsV[8,7]
p2976
NsV[18,0]
p2977
NsV[19,6]
p2978
NsV[25,0]
p2979
NsV[14,1]
p2980
NsV[3,5]
p2981
NsV[12,2]
p2982
NsV[20,7]
p2983
NsV[23,1]
p2984
NsV[28,4]
p2985
NsV[6,5]
p2986
NsV[7,3]
p2987
NsV[27,7]
p2988
NsV[26,1]
p2989
NsV[1,5]
p2990
V50191.02040816327
p2991
sV[4,4]
p2992
NsV[2,6]
p2993
NsV[10,1]
p2994
NsV[15,6]
p2995
NsV[29,0]
p2996
NsV[13,4]
p2997
NsV[5,7]
p2998
NsV[9,4]
p2999
NsV[13,0]
p3000
NsV[22,7]
p3001
NsV[24,7]
p3002
NsV[18,7]
p3003
NsV[8,4]
p3004
NsV[0,0]
p3005
NsV[24,0]
p3006
NsV[11,5]
p3007
NsV[7,5]
p3008
NsV[20,4]
p3009
NsV[23,0]
p3010
NsV[14,0]
p3011
NsV[1,3]
p3012
NsV[7,2]
p3013
NsV[11,7]
p3014
NsV[12,1]
p3015
NsV[27,6]
p3016
NsV[1,4]
p3017
NsV[16,1]
p3018
NsV[4,5]
p3019
NsV[6,6]
p3020
NsV[2,7]
p3021
NsV[15,7]
p3022
NsV[29,7]
p3023
NsV[10,0]
p3024
NsV[26,2]
p3025
NsV[22,2]
p3026
NsV[5,6]
p3027
NsV[15,0]
p3028
NsV[18,2]
p3029
NsV[17,4]
p3030
NsV[8,1]
p3031
NsV[28,2]
p3032
NsV[5,1]
p3033
NsV[21,1]
p3034
NsV[0,5]
p3035
NsV[22,6]
p3036
NsV[14,3]
p3037
NsV[19,0]
p3038
NsV[25,2]
p3039
NsV[20,1]
p3040
NsV[23,6]
p3041
NsV[27,4]
p3042
NsV[28,6]
p3043
NsV[22,5]
p3044
NsV[3,3]
p3045
NsV[1,7]
p3046
NsV[4,6]
p3047
NsV[2,4]
p3048
NsV[23,4]
p3049
NsV[10,3]
p3050
NsV[6,3]
p3051
NsV[17,0]
p3052
NsV[12,4]
p3053
NsV[22,1]
p3054
NsV[9,7]
p3055
NsV[24,6]
p3056
NsV[11,1]
p3057
NsV[13,2]
p3058
NsV[8,6]
p3059
NsV[15,1]
p3060
NsV[0,2]
p3061
NsV[9,6]
p3062
NsV[16,4]
p3063
NsV[5,0]
p3064
NsV[18,1]
p3065
NsV[21,0]
p3066
NsV[25,1]
p3067
NsV[20,6]
p3068
NsV[19,1]
p3069
NsV[11,6]
p3070
NsV[24,1]
p3071
NsV[3,2]
p3072
NsV[14,2]
p3073
NsV[16,0]
p3074
NsV[4,7]
p3075
NsV[28,0]
p3076
NsV[6,4]
p3077
NsV[7,0]
p3078
V53885.71428571428
p3079
sV[23,7]
p3080
NsV[10,2]
p3081
NsV[16,7]
p3082
NsV[1,6]
p3083
NsV[10,6]
p3084
NsV[12,7]
p3085
NsV[26,0]
p3086
NsV[29,1]
p3087
NsV[2,5]
p3088
NsV[29,2]
p3089
NsV[26,4]
p3090
NsV[17,7]
p3091
NsV[13,3]
p3092
Nsa(dp3093
V[5,3]
p3094
V6949.614512471656
p3095
sV[21,3]
p3096
V7394.67120181406
p3097
sV[20,3]
p3098
V4820.6349206349205
p3099
sV[19,2]
p3100
V5116.077097505669
p3101
sV[25,4]
p3102
V8681.405895691609
p3103
sV[11,3]
p3104
V5371.133786848072
p3105
sV[24,2]
p3106
V3768.072562358277
p3107
sV[18,4]
p3108
V5280.340136054422
p3109
sV[14,5]
p3110
V6943.424036281179
p3111
sV[3,1]
p3112
V4745.124716553289
p3113
sV[0,7]
p3114
V5248.934240362812
p3115
sV[7,6]
p3116
V6384.104308390022
p3117
sV[3,6]
p3118
V6997.913832199546
p3119
sV[1,1]
p3120
V4372.925170068028
p3121
sV[27,3]
p3122
V6094.467120181406
p3123
sV[12,6]
p3124
V5396.0544217687075
p3125
sV[2,2]
p3126
V4436.303854875283
p3127
sV[4,0]
p3128
V2677.3015873015875
p3129
sV[6,1]
p3130
V2816.893424036281
p3131
sV[10,5]
p3132
V3421.5646258503402
p3133
sV[8,3]
p3134
V5470.680272108843
p3135
sV[29,4]
p3136
V3713.786848072563
p3137
sV[9,1]
p3138
V3966.1451247165537
p3139
sV[21,2]
p3140
V5213.673469387755
p3141
sV[15,3]
p3142
V3879.297052154195
p3143
sV[18,3]
p3144
V6056.575963718821
p3145
sV[8,0]
p3146
V4831.995464852608
p3147
sV[19,3]
p3148
V6762.562358276644
p3149
sV[25,3]
p3150
V8657.936507936509
p3151
sV[26,7]
p3152
V5692.607709750568
p3153
sV[5,2]
p3154
V5871.587301587302
p3155
sV[21,6]
p3156
V6744.512471655329
p3157
sV[16,6]
p3158
V4233.424036281179
p3159
sV[3,0]
p3160
V3039.9773242630386
p3161
sV[0,4]
p3162
V6117.074829931973
p3163
sV[20,0]
p3164
V4110.816326530612
p3165
sV[22,0]
p3166
V4108.27664399093
p3167
sV[14,4]
p3168
V13773.219954648526
p3169
sV[7,1]
p3170
V3264.172335600907
p3171
sV[11,0]
p3172
V4443.673469387755
p3173
sV[24,3]
p3174
V3818.049886621315
p3175
sV[27,5]
p3176
V4334.308390022676
p3177
sV[28,1]
p3178
V5188.91156462585
p3179
sV[23,5]
p3180
V5312.539682539683
p3181
sV[1,0]
p3182
V4934.081632653061
p3183
sV[16,5]
p3184
V10014.489795918367
p3185
sV[17,6]
p3186
V6209.251700680272
p3187
sV[12,5]
p3188
V6257.437641723356
p3189
sV[27,2]
p3190
V5591.179138321996
p3191
sV[2,3]
p3192
V4311.315192743765
p3193
sV[22,4]
p3194
V7820.045351473923
p3195
sV[29,3]
p3196
V4540.952380952381
p3197
sV[4,1]
p3198
V3593.1292517006805
p3199
sV[13,1]
p3200
V5766.281179138322
p3201
sV[6,2]
p3202
V3583.1746031746034
p3203
sV[26,6]
p3204
V6063.1292517006805
p3205
sV[10,4]
p3206
V5236.303854875284
p3207
sV[9,0]
p3208
V3428.1632653061224
p3209
sV[13,6]
p3210
V5060.680272108843
p3211
sV[16,2]
p3212
V4614.557823129251
p3213
sV[5,5]
p3214
V6155.1927437641725
p3215
sV[8,5]
p3216
V4073.7414965986395
p3217
sV[0,1]
p3218
V7046.122448979591
p3219
sV[14,7]
p3220
V6328.730158730159
p3221
sV[21,5]
p3222
V6701.473922902494
p3223
sV[7,4]
p3224
V3055.5102040816328
p3225
sV[17,3]
p3226
V5918.684807256236
p3227
sV[24,4]
p3228
V2718.1179138321995
p3229
sV[18,6]
p3230
V6209.863945578231
p3231
sV[13,5]
p3232
V5286.167800453515
p3233
sV[19,4]
p3234
V8232.290249433107
p3235
sV[1,2]
p3236
V4511.541950113378
p3237
sV[20,5]
p3238
V5315.873015873016
p3239
sV[11,4]
p3240
V5357.981859410432
p3241
sV[12,0]
p3242
V4153.90022675737
p3243
sV[27,1]
p3244
V5923.5147392290255
p3245
sV[28,5]
p3246
V9461.224489795919
p3247
sV[28,7]
p3248
V6841.927437641724
p3249
sV[2,0]
p3250
V2468.3219954648525
p3251
sV[3,4]
p3252
V5062.222222222223
p3253
sV[17,5]
p3254
V4253.242630385488
p3255
sV[4,2]
p3256
V3598.956916099773
p3257
sV[6,7]
p3258
V2610.589569160998
p3259
sV[10,7]
p3260
V3330.2494331065764
p3261
sV[15,2]
p3262
V3881.451247165533
p3263
sV[9,3]
p3264
V2963.718820861678
p3265
sV[14,6]
p3266
V3510.8616780045354
p3267
sV[26,3]
p3268
V4268.0952380952385
p3269
sV[15,4]
p3270
V4577.64172335601
p3271
sV[29,6]
p3272
V4197.755102040816
p3273
sV[13,7]
p3274
V5140.6349206349205
p3275
sV[5,4]
p3276
V5605.759637188209
p3277
sV[0,6]
p3278
V6245.14739229025
p3279
sV[25,5]
p3280
V8485.124716553288
p3281
sV[20,2]
p3282
V4495.736961451247
p3283
sV[18,5]
p3284
V6349.523809523809
p3285
sV[28,3]
p3286
V5966.39455782313
p3287
sV[21,4]
p3288
V7382.448979591837
p3289
sV[11,2]
p3290
V5101.315192743765
p3291
sV[24,5]
p3292
V2656.077097505669
p3293
sV[25,7]
p3294
V8499.637188208617
p3295
sV[19,5]
p3296
V5596.326530612245
p3297
sV[7,7]
p3298
V3615.7596371882087
p3299
sV[2,1]
p3300
V4068.75283446712
p3301
sV[3,7]
p3302
V7486.938775510204
p3303
sV[23,3]
p3304
V4677.3015873015875
p3305
sV[6,0]
p3306
V2581.179138321995
p3307
sV[23,2]
p3308
V5660.136054421769
p3309
sV[12,3]
p3310
V6126.39455782313
p3311
sV[27,0]
p3312
V5554.85260770975
p3313
sV[17,1]
p3314
V4722.403628117914
p3315
sV[16,3]
p3316
V4234.149659863946
p3317
sV[9,2]
p3318
V3284.0136054421773
p3319
sV[4,3]
p3320
V3714.0589569160998
p3321
sV[26,5]
p3322
V5297.02947845805
p3323
sV[29,5]
p3324
V4068.072562358276
p3325
sV[8,2]
p3326
V4997.845804988662
p3327
sV[15,5]
p3328
V4380.362811791383
p3329
sV[17,2]
p3330
V4872.947845804989
p3331
sV[0,3]
p3332
V6387.3015873015875
p3333
sV[9,5]
p3334
V4233.219954648526
p3335
sV[19,7]
p3336
V5400.272108843538
p3337
sV[25,6]
p3338
V8893.809523809525
p3339
sV[21,7]
p3340
V9025.532879818595
p3341
sV[22,3]
p3342
V9974.557823129253
p3343
sV[8,7]
p3344
V5585.46485260771
p3345
sV[18,0]
p3346
V8417.732426303855
p3347
sV[19,6]
p3348
V6796.349206349207
p3349
sV[25,0]
p3350
V5574.852607709751
p3351
sV[14,1]
p3352
V6670.113378684808
p3353
sV[3,5]
p3354
V5072.902494331066
p3355
sV[12,2]
p3356
V4724.331065759638
p3357
sV[20,7]
p3358
V4518.004535147393
p3359
sV[23,1]
p3360
V5537.528344671202
p3361
sV[28,4]
p3362
V8674.308390022676
p3363
sV[6,5]
p3364
V2938.4807256235827
p3365
sV[7,3]
p3366
V2952.6530612244896
p3367
sV[27,7]
p3368
V4609.024943310658
p3369
sV[26,1]
p3370
V6442.539682539683
p3371
sV[1,5]
p3372
V5560.31746031746
p3373
sV[4,4]
p3374
V3597.845804988662
p3375
sV[2,6]
p3376
V5663.219954648526
p3377
sV[10,1]
p3378
V3555.374149659864
p3379
sV[15,6]
p3380
V4905.170068027211
p3381
sV[29,0]
p3382
V3699.3650793650795
p3383
sV[13,4]
p3384
V5512.562358276644
p3385
sV[5,7]
p3386
V5770.000000000001
p3387
sV[9,4]
p3388
V7838.9795918367345
p3389
sV[13,0]
p3390
V5491.904761904762
p3391
sV[22,7]
p3392
V5666.8707482993195
p3393
sV[24,7]
p3394
V4747.505668934241
p3395
sV[18,7]
p3396
V7343.061224489797
p3397
sV[8,4]
p3398
V4121.201814058957
p3399
sV[0,0]
p3400
V5387.052154195011
p3401
sV[24,0]
p3402
V3337.732426303855
p3403
sV[11,5]
p3404
V6350.068027210885
p3405
sV[7,5]
p3406
V4555.442176870749
p3407
sV[20,4]
p3408
V4823.492063492064
p3409
sV[23,0]
p3410
V5546.916099773242
p3411
sV[14,0]
p3412
V5980.544217687075
p3413
sV[1,3]
p3414
V5081.111111111111
p3415
sV[7,2]
p3416
V3367.1655328798183
p3417
sV[11,7]
p3418
V6379.909297052154
p3419
sV[12,1]
p3420
V5923.1065759637195
p3421
sV[27,6]
p3422
V5728.231292517007
p3423
sV[1,4]
p3424
V5812.857142857143
p3425
sV[16,1]
p3426
V5155.170068027211
p3427
sV[4,5]
p3428
V5474.195011337868
p3429
sV[6,6]
p3430
V2717.2108843537417
p3431
sV[2,7]
p3432
V2976.190476190476
p3433
sV[15,7]
p3434
V4091.9727891156467
p3435
sV[29,7]
p3436
V4913.378684807256
p3437
sV[10,0]
p3438
V2743.151927437642
p3439
sV[26,2]
p3440
V5883.9682539682535
p3441
sV[22,2]
p3442
V6289.818594104308
p3443
sV[5,6]
p3444
V5643.5147392290255
p3445
sV[15,0]
p3446
V4320.6122448979595
p3447
sV[18,2]
p3448
V6052.131519274377
p3449
sV[17,4]
p3450
V5925.510204081633
p3451
sV[8,1]
p3452
V4632.630385487529
p3453
sV[28,2]
p3454
V10381.020408163266
p3455
sV[5,1]
p3456
V5834.693877551021
p3457
sV[21,1]
p3458
V6695.2154195011335
p3459
sV[0,5]
p3460
V6961.72335600907
p3461
sV[22,6]
p3462
V5552.312925170068
p3463
sV[14,3]
p3464
V5942.743764172335
p3465
sV[19,0]
p3466
V2451.2244897959185
p3467
sV[25,2]
p3468
V7801.655328798186
p3469
sV[20,1]
p3470
V4834.195011337869
p3471
sV[23,6]
p3472
V5379.07029478458
p3473
sV[27,4]
p3474
V4766.4852607709745
p3475
sV[28,6]
p3476
V8601.428571428572
p3477
sV[22,5]
p3478
V5755.46485260771
p3479
sV[3,3]
p3480
V6726.666666666667
p3481
sV[1,7]
p3482
V6587.074829931973
p3483
sV[4,6]
p3484
V4393.038548752835
p3485
sV[2,4]
p3486
V6637.936507936508
p3487
sV[23,4]
p3488
V5794.195011337869
p3489
sV[10,3]
p3490
V5718.367346938775
p3491
sV[6,3]
p3492
V2899.795918367347
p3493
sV[17,0]
p3494
V4516.666666666667
p3495
sV[12,4]
p3496
V4238.458049886622
p3497
sV[22,1]
p3498
V5092.358276643991
p3499
sV[9,7]
p3500
V2731.746031746032
p3501
sV[24,6]
p3502
V3102.2448979591836
p3503
sV[11,1]
p3504
V5872.018140589569
p3505
sV[13,2]
p3506
V5387.02947845805
p3507
sV[8,6]
p3508
V4906.848072562358
p3509
sV[15,1]
p3510
V4465.918367346939
p3511
sV[0,2]
p3512
V6222.675736961452
p3513
sV[9,6]
p3514
V3607.7097505668935
p3515
sV[16,4]
p3516
V4448.707482993197
p3517
sV[5,0]
p3518
V3778.0272108843537
p3519
sV[18,1]
p3520
V7384.829931972789
p3521
sV[21,0]
p3522
V3706.326530612245
p3523
sV[25,1]
p3524
V8396.485260770974
p3525
sV[20,6]
p3526
V4099.410430839002
p3527
sV[19,1]
p3528
V8726.394557823129
p3529
sV[11,6]
p3530
V4053.4240362811797
p3531
sV[24,1]
p3532
V6035.510204081633
p3533
sV[3,2]
p3534
V6298.59410430839
p3535
sV[14,2]
p3536
V18849.183673469386
p3537
sV[16,0]
p3538
V4966.009070294785
p3539
sV[4,7]
p3540
V4143.106575963719
p3541
sV[28,0]
p3542
V5565.850340136055
p3543
sV[6,4]
p3544
V3657.2335600907027
p3545
sV[7,0]
p3546
V2819.591836734694
p3547
sV[23,7]
p3548
V3698.140589569161
p3549
sV[10,2]
p3550
V4527.097505668935
p3551
sV[16,7]
p3552
V6114.149659863946
p3553
sV[1,6]
p3554
V5435.918367346939
p3555
sV[10,6]
p3556
V5109.7959183673465
p3557
sV[12,7]
p3558
V7428.820861678005
p3559
sV[26,0]
p3560
V4684.8072562358275
p3561
sV[29,1]
p3562
V4200.975056689343
p3563
sV[2,5]
p3564
V4108.91156462585
p3565
sV[29,2]
p3566
V4367.482993197279
p3567
sV[26,4]
p3568
V5531.836734693878
p3569
sV[17,7]
p3570
V5540.5895691609985
p3571
sV[13,3]
p3572
V4230.0
p3573
sa(dp3574
V[5,3]
p3575
V9771.632653061224
p3576
sV[21,3]
p3577
V11525.260770975057
p3578
sV[20,3]
p3579
V6925.850340136055
p3580
sV[19,2]
p3581
V6723.106575963719
p3582
sV[25,4]
p3583
V11596.73469387755
p3584
sV[11,3]
p3585
V7996.8480725623585
p3586
sV[24,2]
p3587
V5434.7845804988665
p3588
sV[18,4]
p3589
V7336.507936507937
p3590
sV[14,5]
p3591
V12327.052154195013
p3592
sV[3,1]
p3593
V6724.3764172335605
p3594
sV[0,7]
p3595
V8077.052154195011
p3596
sV[7,6]
p3597
V7600.385487528345
p3598
sV[3,6]
p3599
V9280.748299319726
p3600
sV[1,1]
p3601
V6214.988662131519
p3602
sV[27,3]
p3603
V8435.260770975057
p3604
sV[12,6]
p3605
V8380.022675736962
p3606
sV[2,2]
p3607
V6754.897959183673
p3608
sV[4,0]
p3609
V3849.2743764172337
p3610
sV[6,1]
p3611
V3444.9886621315195
p3612
sV[10,5]
p3613
V4609.727891156463
p3614
sV[8,3]
p3615
V7865.578231292517
p3616
sV[29,4]
p3617
V5492.018140589569
p3618
sV[9,1]
p3619
V5359.20634920635
p3620
sV[21,2]
p3621
V8011.337868480727
p3622
sV[15,3]
p3623
V5218.480725623583
p3624
sV[18,3]
p3625
V7842.108843537416
p3626
sV[8,0]
p3627
V6940.884353741497
p3628
sV[19,3]
p3629
V12676.802721088436
p3630
sV[25,3]
p3631
V11134.013605442178
p3632
sV[26,7]
p3633
V8055.62358276644
p3634
sV[5,2]
p3635
V8332.925170068027
p3636
sV[21,6]
p3637
V9575.804988662132
p3638
sV[16,6]
p3639
V6312.97052154195
p3640
sV[3,0]
p3641
V4108.775510204082
p3642
sV[0,4]
p3643
V8829.97732426304
p3644
sV[20,0]
p3645
V5738.616780045351
p3646
sV[22,0]
p3647
V5907.482993197279
p3648
sV[14,4]
p3649
V15826.848072562358
p3650
sV[7,1]
p3651
V4573.60544217687
p3652
sV[11,0]
p3653
V6701.428571428572
p3654
sV[24,3]
p3655
V6247.460317460318
p3656
sV[27,5]
p3657
V6016.984126984127
p3658
sV[28,1]
p3659
V6763.990929705215
p3660
sV[23,5]
p3661
V7865.895691609978
p3662
sV[1,0]
p3663
V7323.492063492064
p3664
sV[16,5]
p3665
V11266.39455782313
p3666
sV[17,6]
p3667
V9193.10657596372
p3668
sV[12,5]
p3669
V11843.333333333334
p3670
sV[27,2]
p3671
V7897.528344671202
p3672
sV[2,3]
p3673
V6939.319727891157
p3674
sV[22,4]
p3675
V10065.12471655329
p3676
sV[29,3]
p3677
V6293.832199546485
p3678
sV[4,1]
p3679
V5209.115646258503
p3680
sV[13,1]
p3681
V8312.244897959185
p3682
sV[6,2]
p3683
V4738.027210884355
p3684
sV[26,6]
p3685
V8203.809523809523
p3686
sV[10,4]
p3687
V6830.090702947846
p3688
sV[9,0]
p3689
V4532.585034013606
p3690
sV[13,6]
p3691
V7351.08843537415
p3692
sV[16,2]
p3693
V6725.578231292518
p3694
sV[5,5]
p3695
V8064.7845804988665
p3696
sV[8,5]
p3697
V6963.265306122449
p3698
sV[0,1]
p3699
V11225.850340136054
p3700
sV[14,7]
p3701
V8622.675736961452
p3702
sV[21,5]
p3703
V12433.696145124717
p3704
sV[7,4]
p3705
V3978.7528344671205
p3706
sV[17,3]
p3707
V7836.530612244898
p3708
sV[24,4]
p3709
V3573.5374149659865
p3710
sV[18,6]
p3711
V9030.340136054421
p3712
sV[13,5]
p3713
V7373.265306122449
p3714
sV[19,4]
p3715
V11412.403628117914
p3716
sV[1,2]
p3717
V6373.265306122449
p3718
sV[20,5]
p3719
V7499.410430839002
p3720
sV[11,4]
p3721
V7058.75283446712
p3722
sV[12,0]
p3723
V5517.619047619048
p3724
sV[27,1]
p3725
V8058.185941043083
p3726
sV[28,5]
p3727
V11337.460317460318
p3728
sV[28,7]
p3729
V9084.875283446712
p3730
sV[2,0]
p3731
V3779.183673469388
p3732
sV[3,4]
p3733
V6587.34693877551
p3734
sV[17,5]
p3735
V6548.59410430839
p3736
sV[4,2]
p3737
V7960.47619047619
p3738
sV[6,7]
p3739
V3225.1247165532877
p3740
sV[10,7]
p3741
V6452.993197278912
p3742
sV[15,2]
p3743
V5238.344671201814
p3744
sV[9,3]
p3745
V4050.9297052154193
p3746
sV[14,6]
p3747
V4828.1405895691605
p3748
sV[26,3]
p3749
V6284.421768707483
p3750
sV[15,4]
p3751
V6276.825396825397
p3752
sV[29,6]
p3753
V6390.748299319728
p3754
sV[13,7]
p3755
V7174.875283446712
p3756
sV[5,4]
p3757
V7466.371882086169
p3758
sV[0,6]
p3759
V8802.33560090703
p3760
sV[25,5]
p3761
V11062.698412698413
p3762
sV[20,2]
p3763
V6336.0770975056685
p3764
sV[18,5]
p3765
V10448.321995464854
p3766
sV[28,3]
p3767
V8950.249433106575
p3768
sV[21,4]
p3769
V15937.233560090703
p3770
sV[11,2]
p3771
V7290.090702947846
p3772
sV[24,5]
p3773
V4380.77097505669
p3774
sV[25,7]
p3775
V11163.378684807256
p3776
sV[19,5]
p3777
V7223.469387755103
p3778
sV[7,7]
p3779
V4755.827664399093
p3780
sV[2,1]
p3781
V5730.770975056689
p3782
sV[3,7]
p3783
V11904.69387755102
p3784
sV[23,3]
p3785
V6015.487528344672
p3786
sV[6,0]
p3787
V3265.714285714286
p3788
sV[23,2]
p3789
V7675.759637188209
p3790
sV[12,3]
p3791
V10073.945578231293
p3792
sV[27,0]
p3793
V7374.126984126984
p3794
sV[17,1]
p3795
V6120.022675736962
p3796
sV[16,3]
p3797
V5929.7732426303855
p3798
sV[9,2]
p3799
V4352.721088435374
p3800
sV[4,3]
p3801
V5276.213151927438
p3802
sV[26,5]
p3803
V8541.70068027211
p3804
sV[29,5]
p3805
V5884.671201814059
p3806
sV[8,2]
p3807
V7029.115646258504
p3808
sV[15,5]
p3809
V6193.5147392290255
p3810
sV[17,2]
p3811
V6683.5374149659865
p3812
sV[0,3]
p3813
V9118.140589569162
p3814
sV[9,5]
p3815
V13254.263038548754
p3816
sV[19,7]
p3817
V6947.7324263038545
p3818
sV[25,6]
p3819
V11899.138321995466
p3820
sV[21,7]
p3821
V12221.927437641723
p3822
sV[22,3]
p3823
V13843.628117913833
p3824
sV[8,7]
p3825
V7665.14739229025
p3826
sV[18,0]
p3827
V10168.662131519275
p3828
sV[19,6]
p3829
V7994.104308390023
p3830
sV[25,0]
p3831
V7722.358276643991
p3832
sV[14,1]
p3833
V9119.047619047618
p3834
sV[3,5]
p3835
V8319.68253968254
p3836
sV[12,2]
p3837
V6342.879818594104
p3838
sV[20,7]
p3839
V6289.591836734694
p3840
sV[23,1]
p3841
V7443.265306122449
p3842
sV[28,4]
p3843
V28072.426303854874
p3844
sV[6,5]
p3845
V4103.605442176871
p3846
sV[7,3]
p3847
V4135.895691609978
p3848
sV[27,7]
p3849
V6612.630385487529
p3850
sV[26,1]
p3851
V8967.98185941043
p3852
sV[1,5]
p3853
V8060.385487528345
p3854
sV[4,4]
p3855
V4808.412698412699
p3856
sV[2,6]
p3857
V8664.331065759636
p3858
sV[10,1]
p3859
V4615.510204081633
p3860
sV[15,6]
p3861
V6469.614512471655
p3862
sV[29,0]
p3863
V5393.696145124717
p3864
sV[13,4]
p3865
V7279.818594104308
p3866
sV[5,7]
p3867
V7865.941043083901
p3868
sV[9,4]
p3869
V8793.718820861677
p3870
sV[13,0]
p3871
V7799.795918367347
p3872
sV[22,7]
p3873
V8400.566893424037
p3874
sV[24,7]
p3875
V5348.526077097506
p3876
sV[18,7]
p3877
V10281.882086167801
p3878
sV[8,4]
p3879
V6210.136054421769
p3880
sV[0,0]
p3881
V7843.5374149659865
p3882
sV[24,0]
p3883
V4576.643990929705
p3884
sV[11,5]
p3885
V8584.875283446712
p3886
sV[7,5]
p3887
V5708.458049886622
p3888
sV[20,4]
p3889
V6940.748299319728
p3890
sV[23,0]
p3891
V7727.7324263038545
p3892
sV[14,0]
p3893
V8019.07029478458
p3894
sV[1,3]
p3895
V7178.594104308389
p3896
sV[7,2]
p3897
V4899.841269841269
p3898
sV[11,7]
p3899
V8361.201814058957
p3900
sV[12,1]
p3901
V7338.480725623584
p3902
sV[27,6]
p3903
V7649.3424036281185
p3904
sV[1,4]
p3905
V8069.3197278911575
p3906
sV[16,1]
p3907
V6973.015873015873
p3908
sV[4,5]
p3909
V7038.934240362812
p3910
sV[6,6]
p3911
V4100.997732426304
p3912
sV[2,7]
p3913
V4575.78231292517
p3914
sV[15,7]
p3915
V5828.934240362812
p3916
sV[29,7]
p3917
V6891.746031746032
p3918
sV[10,0]
p3919
V3760.839002267574
p3920
sV[26,2]
p3921
V7886.167800453514
p3922
sV[22,2]
p3923
V9410.839002267574
p3924
sV[5,6]
p3925
V7541.8594104308395
p3926
sV[15,0]
p3927
V5629.637188208617
p3928
sV[18,2]
p3929
V8215.01133786848
p3930
sV[17,4]
p3931
V7887.95918367347
p3932
sV[8,1]
p3933
V6319.0022675736955
p3934
sV[28,2]
p3935
V17808.004535147393
p3936
sV[5,1]
p3937
V8001.4512471655335
p3938
sV[21,1]
p3939
V8377.619047619048
p3940
sV[0,5]
p3941
V9480.430839002267
p3942
sV[22,6]
p3943
V7893.106575963719
p3944
sV[14,3]
p3945
V8992.086167800453
p3946
sV[19,0]
p3947
V3468.480725623583
p3948
sV[25,2]
p3949
V10546.462585034014
p3950
sV[20,1]
p3951
V9565.510204081633
p3952
sV[23,6]
p3953
V7269.727891156463
p3954
sV[27,4]
p3955
V6991.496598639456
p3956
sV[28,6]
p3957
V17272.01814058957
p3958
sV[22,5]
p3959
V8232.040816326531
p3960
sV[3,3]
p3961
V9969.591836734693
p3962
sV[1,7]
p3963
V8948.117913832199
p3964
sV[4,6]
p3965
V19246.12244897959
p3966
sV[2,4]
p3967
V8733.174603174604
p3968
sV[23,4]
p3969
V7976.734693877552
p3970
sV[10,3]
p3971
V9671.201814058957
p3972
sV[6,3]
p3973
V3676.485260770975
p3974
sV[17,0]
p3975
V6111.56462585034
p3976
sV[12,4]
p3977
V6216.281179138322
p3978
sV[22,1]
p3979
V6741.972789115646
p3980
sV[9,7]
p3981
V13545.6462585034
p3982
sV[24,6]
p3983
V3981.360544217687
p3984
sV[11,1]
p3985
V9291.904761904761
p3986
sV[13,2]
p3987
V7647.052154195012
p3988
sV[8,6]
p3989
V7105.374149659864
p3990
sV[15,1]
p3991
V6362.97052154195
p3992
sV[0,2]
p3993
V9689.84126984127
p3994
sV[9,6]
p3995
V4812.176870748299
p3996
sV[16,4]
p3997
V6121.814058956917
p3998
sV[5,0]
p3999
V5450.430839002268
p4000
sV[18,1]
p4001
V9628.775510204083
p4002
sV[21,0]
p4003
V5361.927437641723
p4004
sV[25,1]
p4005
V10975.328798185941
p4006
sV[20,6]
p4007
V6046.0544217687075
p4008
sV[19,1]
p4009
V11056.916099773243
p4010
sV[11,6]
p4011
V5942.81179138322
p4012
sV[24,1]
p4013
V7814.353741496599
p4014
sV[3,2]
p4015
V8894.807256235827
p4016
sV[14,2]
p4017
V19893.242630385488
p4018
sV[16,0]
p4019
V6229.319727891157
p4020
sV[4,7]
p4021
V6203.718820861678
p4022
sV[28,0]
p4023
V7507.64172335601
p4024
sV[6,4]
p4025
V4525.374149659864
p4026
sV[7,0]
p4027
V3930.7256235827667
p4028
sV[23,7]
p4029
V5054.013605442176
p4030
sV[10,2]
p4031
V6649.115646258504
p4032
sV[16,7]
p4033
V8433.44671201814
p4034
sV[1,6]
p4035
V7623.877551020409
p4036
sV[10,6]
p4037
V6841.473922902494
p4038
sV[12,7]
p4039
V9804.353741496598
p4040
sV[26,0]
p4041
V6463.219954648526
p4042
sV[29,1]
p4043
V5657.120181405896
p4044
sV[2,5]
p4045
V5631.609977324263
p4046
sV[29,2]
p4047
V6056.802721088436
p4048
sV[26,4]
p4049
V8338.253968253968
p4050
sV[17,7]
p4051
V8184.240362811792
p4052
sV[13,3]
p4053
V6209.52380952381
p4054
sa(dp4055
V[5,3]
p4056
V12716.167800453515
p4057
sV[21,3]
p4058
V14438.480725623584
p4059
sV[20,3]
p4060
V30674.01360544218
p4061
sV[19,2]
p4062
V8347.66439909297
p4063
sV[25,4]
p4064
V14185.555555555557
p4065
sV[11,3]
p4066
V10214.852607709752
p4067
sV[24,2]
p4068
V6961.043083900227
p4069
sV[18,4]
p4070
V9646.009070294784
p4071
sV[14,5]
p4072
V17490.2947845805
p4073
sV[3,1]
p4074
V8559.319727891158
p4075
sV[0,7]
p4076
V10529.977324263038
p4077
sV[7,6]
p4078
V11124.98866213152
p4079
sV[3,6]
p4080
V11304.71655328798
p4081
sV[1,1]
p4082
V8359.931972789116
p4083
sV[27,3]
p4084
V10482.33560090703
p4085
sV[12,6]
p4086
V11276.984126984127
p4087
sV[2,2]
p4088
V8689.569160997733
p4089
sV[4,0]
p4090
V8292.698412698412
p4091
sV[6,1]
p4092
V6507.34693877551
p4093
sV[10,5]
p4094
V6815.374149659864
p4095
sV[8,3]
p4096
V9420.045351473924
p4097
sV[29,4]
p4098
V7105.578231292517
p4099
sV[9,1]
p4100
V6604.399092970521
p4101
sV[21,2]
p4102
V10002.244897959183
p4103
sV[15,3]
p4104
V7186.326530612245
p4105
sV[18,3]
p4106
V10038.185941043084
p4107
sV[8,0]
p4108
V8723.696145124715
p4109
sV[19,3]
p4110
V20042.403628117914
p4111
sV[25,3]
p4112
V14220.045351473922
p4113
sV[26,7]
p4114
V10300.702947845804
p4115
sV[5,2]
p4116
V10575.30612244898
p4117
sV[21,6]
p4118
V15883.242630385486
p4119
sV[16,6]
p4120
V8631.972789115647
p4121
sV[3,0]
p4122
V5292.7210884353735
p4123
sV[0,4]
p4124
V11380.340136054421
p4125
sV[20,0]
p4126
V7223.12925170068
p4127
sV[22,0]
p4128
V7870.793650793651
p4129
sV[14,4]
p4130
V20814.897959183676
p4131
sV[7,1]
p4132
V5659.387755102041
p4133
sV[11,0]
p4134
V9932.630385487528
p4135
sV[24,3]
p4136
V9400.680272108842
p4137
sV[27,5]
p4138
V7842.65306122449
p4139
sV[28,1]
p4140
V8886.031746031746
p4141
sV[23,5]
p4142
V10048.027210884355
p4143
sV[1,0]
p4144
V9387.369614512472
p4145
sV[16,5]
p4146
V18679.81859410431
p4147
sV[17,6]
p4148
V12019.795918367347
p4149
sV[12,5]
p4150
V14895.827664399092
p4151
sV[27,2]
p4152
V9865.827664399094
p4153
sV[2,3]
p4154
V8576.802721088436
p4155
sV[22,4]
p4156
V12588.707482993197
p4157
sV[29,3]
p4158
V8115.532879818595
p4159
sV[4,1]
p4160
V6760.31746031746
p4161
sV[13,1]
p4162
V10752.630385487528
p4163
sV[6,2]
p4164
V6067.414965986394
p4165
sV[26,6]
p4166
V10778.57142857143
p4167
sV[10,4]
p4168
V8515.736961451248
p4169
sV[9,0]
p4170
V6374.3764172335605
p4171
sV[13,6]
p4172
V10072.562358276644
p4173
sV[16,2]
p4174
V8252.131519274377
p4175
sV[5,5]
p4176
V9964.399092970521
p4177
sV[8,5]
p4178
V8455.78231292517
p4179
sV[0,1]
p4180
V14661.723356009072
p4181
sV[14,7]
p4182
V10567.891156462585
p4183
sV[21,5]
p4184
V15728.367346938776
p4185
sV[7,4]
p4186
V5444.897959183674
p4187
sV[17,3]
p4188
V9850.839002267574
p4189
sV[24,4]
p4190
V6683.333333333334
p4191
sV[18,6]
p4192
V11997.777777777777
p4193
sV[13,5]
p4194
V9766.621315192744
p4195
sV[19,4]
p4196
V13044.104308390024
p4197
sV[1,2]
p4198
V8242.834467120181
p4199
sV[20,5]
p4200
V9406.145124716553
p4201
sV[11,4]
p4202
V9459.274376417234
p4203
sV[12,0]
p4204
V10967.052154195011
p4205
sV[27,1]
p4206
V10158.231292517006
p4207
sV[28,5]
p4208
V13049.591836734693
p4209
sV[28,7]
p4210
V11217.8231292517
p4211
sV[2,0]
p4212
V5524.693877551021
p4213
sV[3,4]
p4214
V9119.297052154196
p4215
sV[17,5]
p4216
V8472.01814058957
p4217
sV[4,2]
p4218
V10528.480725623582
p4219
sV[6,7]
p4220
V4509.795918367347
p4221
sV[10,7]
p4222
V7530.249433106575
p4223
sV[15,2]
p4224
V7760.340136054422
p4225
sV[9,3]
p4226
V5094.988662131519
p4227
sV[14,6]
p4228
V6826.235827664399
p4229
sV[26,3]
p4230
V8269.818594104308
p4231
sV[15,4]
p4232
V8656.643990929706
p4233
sV[29,6]
p4234
V7945.510204081633
p4235
sV[13,7]
p4236
V10112.857142857143
p4237
sV[5,4]
p4238
V9548.367346938776
p4239
sV[0,6]
p4240
V11334.285714285714
p4241
sV[25,5]
p4242
V13933.58276643991
p4243
sV[20,2]
p4244
V11986.507936507938
p4245
sV[18,5]
p4246
V13876.190476190477
p4247
sV[28,3]
p4248
V10697.732426303855
p4249
sV[21,4]
p4250
V18863.537414965987
p4251
sV[11,2]
p4252
V8836.258503401361
p4253
sV[24,5]
p4254
V6532.562358276645
p4255
sV[25,7]
p4256
V13586.371882086167
p4257
sV[19,5]
p4258
V9455.14739229025
p4259
sV[7,7]
p4260
V5750.158730158731
p4261
sV[2,1]
p4262
V7610.317460317461
p4263
sV[3,7]
p4264
V13661.020408163266
p4265
sV[23,3]
p4266
V8086.190476190476
p4267
sV[6,0]
p4268
V3935.260770975057
p4269
sV[23,2]
p4270
V10786.507936507936
p4271
sV[12,3]
p4272
V12604.37641723356
p4273
sV[27,0]
p4274
V9305.9410430839
p4275
sV[17,1]
p4276
V7584.444444444444
p4277
sV[16,3]
p4278
V7812.879818594104
p4279
sV[9,2]
p4280
V7080.997732426304
p4281
sV[4,3]
p4282
V7688.798185941043
p4283
sV[26,5]
p4284
V10835.079365079364
p4285
sV[29,5]
p4286
V7632.857142857143
p4287
sV[8,2]
p4288
V10741.315192743765
p4289
sV[15,5]
p4290
V8391.451247165533
p4291
sV[17,2]
p4292
V8396.984126984127
p4293
sV[0,3]
p4294
V16516.780045351476
p4295
sV[9,5]
p4296
V14117.551020408162
p4297
sV[19,7]
p4298
V8358.730158730159
p4299
sV[25,6]
p4300
V14439.659863945579
p4301
sV[21,7]
p4302
V20334.82993197279
p4303
sV[22,3]
p4304
V15904.807256235827
p4305
sV[8,7]
p4306
V9785.14739229025
p4307
sV[18,0]
p4308
V12204.875283446712
p4309
sV[19,6]
p4310
V20247.98185941043
p4311
sV[25,0]
p4312
V9700.77097505669
p4313
sV[14,1]
p4314
V11779.092970521542
p4315
sV[3,5]
p4316
V9581.678004535148
p4317
sV[12,2]
p4318
V7918.435374149661
p4319
sV[20,7]
p4320
V7994.308390022676
p4321
sV[23,1]
p4322
V9704.308390022676
p4323
sV[28,4]
p4324
V29562.92517006803
p4325
sV[6,5]
p4326
V5173.718820861678
p4327
sV[7,3]
p4328
V5117.120181405896
p4329
sV[27,7]
p4330
V8201.428571428572
p4331
sV[26,1]
p4332
V11500.544217687075
p4333
sV[1,5]
p4334
V10493.650793650793
p4335
sV[4,4]
p4336
V6407.891156462585
p4337
sV[2,6]
p4338
V10920.090702947846
p4339
sV[10,1]
p4340
V5705.283446712018
p4341
sV[15,6]
p4342
V8203.718820861677
p4343
sV[29,0]
p4344
V7120.498866213153
p4345
sV[13,4]
p4346
V9494.535147392291
p4347
sV[5,7]
p4348
V9745.895691609978
p4349
sV[9,4]
p4350
V11041.201814058957
p4351
sV[13,0]
p4352
V10043.333333333332
p4353
sV[22,7]
p4354
V10527.278911564625
p4355
sV[24,7]
p4356
V6191.24716553288
p4357
sV[18,7]
p4358
V13862.19954648526
p4359
sV[8,4]
p4360
V7941.405895691611
p4361
sV[0,0]
p4362
V10613.287981859412
p4363
sV[24,0]
p4364
V6300.385487528345
p4365
sV[11,5]
p4366
V10560.997732426305
p4367
sV[7,5]
p4368
V7309.7732426303855
p4369
sV[20,4]
p4370
V9059.909297052154
p4371
sV[23,0]
p4372
V9887.34693877551
p4373
sV[14,0]
p4374
V10239.954648526078
p4375
sV[1,3]
p4376
V9205.30612244898
p4377
sV[7,2]
p4378
V6591.609977324263
p4379
sV[11,7]
p4380
V10511.156462585035
p4381
sV[12,1]
p4382
V9639.138321995466
p4383
sV[27,6]
p4384
V9552.811791383221
p4385
sV[1,4]
p4386
V10415.102040816328
p4387
sV[16,1]
p4388
V8867.64172335601
p4389
sV[4,5]
p4390
V8678.14058956916
p4391
sV[6,6]
p4392
V4933.5147392290255
p4393
sV[2,7]
p4394
V6213.038548752835
p4395
sV[15,7]
p4396
V7664.172335600907
p4397
sV[29,7]
p4398
V9012.1768707483
p4399
sV[10,0]
p4400
V5333.5374149659865
p4401
sV[26,2]
p4402
V10436.961451247165
p4403
sV[22,2]
p4404
V11301.814058956916
p4405
sV[5,6]
p4406
V13919.750566893425
p4407
sV[15,0]
p4408
V6998.639455782313
p4409
sV[18,2]
p4410
V10471.473922902494
p4411
sV[17,4]
p4412
V10879.614512471657
p4413
sV[8,1]
p4414
V8274.739229024943
p4415
sV[28,2]
p4416
V19496.2358276644
p4417
sV[5,1]
p4418
V10330.453514739229
p4419
sV[21,1]
p4420
V10485.941043083902
p4421
sV[0,5]
p4422
V11981.609977324262
p4423
sV[22,6]
p4424
V9888.049886621315
p4425
sV[14,3]
p4426
V11399.591836734695
p4427
sV[19,0]
p4428
V4593.174603174603
p4429
sV[25,2]
p4430
V13257.074829931973
p4431
sV[20,1]
p4432
V11249.727891156463
p4433
sV[23,6]
p4434
V9201.541950113378
p4435
sV[27,4]
p4436
V8732.131519274377
p4437
sV[28,6]
p4438
V25210.317460317463
p4439
sV[22,5]
p4440
V11903.378684807256
p4441
sV[3,3]
p4442
V12555.12471655329
p4443
sV[1,7]
p4444
V11405.306122448981
p4445
sV[4,6]
p4446
V20776.122448979593
p4447
sV[2,4]
p4448
V10418.412698412698
p4449
sV[23,4]
p4450
V10452.879818594103
p4451
sV[10,3]
p4452
V12705.759637188208
p4453
sV[6,3]
p4454
V5693.560090702948
p4455
sV[17,0]
p4456
V7714.603174603175
p4457
sV[12,4]
p4458
V9987.21088435374
p4459
sV[22,1]
p4460
V8452.993197278913
p4461
sV[9,7]
p4462
V23687.482993197278
p4463
sV[24,6]
p4464
V6244.263038548753
p4465
sV[11,1]
p4466
V11941.292517006803
p4467
sV[13,2]
p4468
V9876.031746031746
p4469
sV[8,6]
p4470
V9088.616780045351
p4471
sV[15,1]
p4472
V8469.84126984127
p4473
sV[0,2]
p4474
V13224.104308390024
p4475
sV[9,6]
p4476
V7992.925170068028
p4477
sV[16,4]
p4478
V8649.07029478458
p4479
sV[5,0]
p4480
V7273.560090702948
p4481
sV[18,1]
p4482
V12389.138321995466
p4483
sV[21,0]
p4484
V27564.21768707483
p4485
sV[25,1]
p4486
V13941.24716553288
p4487
sV[20,6]
p4488
V8084.263038548754
p4489
sV[19,1]
p4490
V12369.750566893425
p4491
sV[11,6]
p4492
V8037.777777777778
p4493
sV[24,1]
p4494
V9420.975056689344
p4495
sV[3,2]
p4496
V11225.62358276644
p4497
sV[14,2]
p4498
V21651.40589569161
p4499
sV[16,0]
p4500
V7965.986394557823
p4501
sV[4,7]
p4502
V8807.777777777777
p4503
sV[28,0]
p4504
V9403.28798185941
p4505
sV[6,4]
p4506
V5779.115646258504
p4507
sV[7,0]
p4508
V4780.045351473923
p4509
sV[23,7]
p4510
V7432.81179138322
p4511
sV[10,2]
p4512
V8577.369614512472
p4513
sV[16,7]
p4514
V10214.104308390024
p4515
sV[1,6]
p4516
V14796.530612244898
p4517
sV[10,6]
p4518
V8632.131519274375
p4519
sV[12,7]
p4520
V11974.353741496598
p4521
sV[26,0]
p4522
V8021.972789115645
p4523
sV[29,1]
p4524
V7344.625850340136
p4525
sV[2,5]
p4526
V7293.628117913832
p4527
sV[29,2]
p4528
V7651.133786848072
p4529
sV[26,4]
p4530
V10588.344671201814
p4531
sV[17,7]
p4532
NsV[13,3]
p4533
V8122.698412698412
p4534
sa(dp4535
V[5,3]
p4536
V15597.845804988661
p4537
sV[21,3]
p4538
V16987.84580498866
p4539
sV[20,3]
p4540
NsV[19,2]
p4541
V10188.616780045353
p4542
sV[25,4]
p4543
V17223.37868480726
p4544
sV[11,3]
p4545
V12304.784580498866
p4546
sV[24,2]
p4547
V8482.607709750568
p4548
sV[18,4]
p4549
V12573.718820861679
p4550
sV[14,5]
p4551
V19612.31292517007
p4552
sV[3,1]
p4553
V10553.832199546487
p4554
sV[0,7]
p4555
V14083.492063492065
p4556
sV[7,6]
p4557
V12235.170068027212
p4558
sV[3,6]
p4559
V13312.585034013606
p4560
sV[1,1]
p4561
V10209.546485260771
p4562
sV[27,3]
p4563
V12442.65306122449
p4564
sV[12,6]
p4565
V14175.963718820862
p4566
sV[2,2]
p4567
V10950.022675736962
p4568
sV[4,0]
p4569
V9221.337868480725
p4570
sV[6,1]
p4571
V7426.326530612245
p4572
sV[10,5]
p4573
V8304.580498866213
p4574
sV[8,3]
p4575
V11245.011337868482
p4576
sV[29,4]
p4577
V15257.528344671202
p4578
sV[9,1]
p4579
V9617.732426303855
p4580
sV[21,2]
p4581
V14177.845804988661
p4582
sV[15,3]
p4583
V9225.850340136054
p4584
sV[18,3]
p4585
V12395.079365079366
p4586
sV[8,0]
p4587
V10576.349206349207
p4588
sV[19,3]
p4589
V20765.102040816328
p4590
sV[25,3]
p4591
V17169.841269841272
p4592
sV[26,7]
p4593
V12526.462585034014
p4594
sV[5,2]
p4595
V12985.918367346938
p4596
sV[21,6]
p4597
V19893.44671201814
p4598
sV[16,6]
p4599
V10904.240362811792
p4600
sV[3,0]
p4601
V6356.009070294785
p4602
sV[0,4]
p4603
V14501.337868480725
p4604
sV[20,0]
p4605
V9217.34693877551
p4606
sV[22,0]
p4607
V10058.730158730159
p4608
sV[14,4]
p4609
V23212.902494331065
p4610
sV[7,1]
p4611
V7264.965986394558
p4612
sV[11,0]
p4613
V11885.804988662132
p4614
sV[24,3]
p4615
V10672.244897959183
p4616
sV[27,5]
p4617
V9351.678004535148
p4618
sV[28,1]
p4619
V10321.269841269843
p4620
sV[23,5]
p4621
V12004.965986394558
p4622
sV[1,0]
p4623
V11604.51247165533
p4624
sV[16,5]
p4625
V23143.60544217687
p4626
sV[17,6]
p4627
V15751.950113378685
p4628
sV[12,5]
p4629
V18469.43310657596
p4630
sV[27,2]
p4631
V13116.485260770976
p4632
sV[2,3]
p4633
V10663.197278911564
p4634
sV[22,4]
p4635
V17840.566893424035
p4636
sV[29,3]
p4637
V9614.013605442176
p4638
sV[4,1]
p4639
V16719.38775510204
p4640
sV[13,1]
p4641
V12794.399092970521
p4642
sV[6,2]
p4643
V7277.142857142858
p4644
sV[26,6]
p4645
V13107.142857142857
p4646
sV[10,4]
p4647
V10049.954648526076
p4648
sV[9,0]
p4649
V9792.857142857143
p4650
sV[13,6]
p4651
V12725.918367346938
p4652
sV[16,2]
p4653
V10277.709750566893
p4654
sV[5,5]
p4655
V11866.031746031746
p4656
sV[8,5]
p4657
V9766.349206349207
p4658
sV[0,1]
p4659
V17896.87074829932
p4660
sV[14,7]
p4661
V12534.603174603175
p4662
sV[21,5]
p4663
V18599.79591836735
p4664
sV[7,4]
p4665
V6527.8231292517
p4666
sV[17,3]
p4667
V12032.834467120181
p4668
sV[24,4]
p4669
V7621.972789115646
p4670
sV[18,6]
p4671
V14575.056689342404
p4672
sV[13,5]
p4673
V11844.036281179138
p4674
sV[19,4]
p4675
V18643.26530612245
p4676
sV[1,2]
p4677
V10198.458049886622
p4678
sV[20,5]
p4679
V11466.87074829932
p4680
sV[11,4]
p4681
V12087.573696145124
p4682
sV[12,0]
p4683
V12587.732426303855
p4684
sV[27,1]
p4685
V12323.537414965987
p4686
sV[28,5]
p4687
V15313.310657596372
p4688
sV[28,7]
p4689
V12981.088435374151
p4690
sV[2,0]
p4691
V7201.972789115646
p4692
sV[3,4]
p4693
V10718.072562358277
p4694
sV[17,5]
p4695
V11873.968253968254
p4696
sV[4,2]
p4697
V16716.643990929704
p4698
sV[6,7]
p4699
V5313.265306122449
p4700
sV[10,7]
p4701
V12231.655328798186
p4702
sV[15,2]
p4703
V9628.775510204083
p4704
sV[9,3]
p4705
V6435.011337868481
p4706
sV[14,6]
p4707
V8101.768707482993
p4708
sV[26,3]
p4709
V10315.351473922903
p4710
sV[15,4]
p4711
V10453.401360544218
p4712
sV[29,6]
p4713
V9620.47619047619
p4714
sV[13,7]
p4715
V12159.20634920635
p4716
sV[5,4]
p4717
V11526.916099773242
p4718
sV[0,6]
p4719
V14876.689342403628
p4720
sV[25,5]
p4721
V16983.62811791383
p4722
sV[20,2]
p4723
V15695.14739229025
p4724
sV[18,5]
p4725
V17079.7052154195
p4726
sV[28,3]
p4727
V12994.943310657596
p4728
sV[21,4]
p4729
V21963.061224489797
p4730
sV[11,2]
p4731
V10748.004535147393
p4732
sV[24,5]
p4733
V8986.462585034014
p4734
sV[25,7]
p4735
V16322.630385487528
p4736
sV[19,5]
p4737
V15791.496598639456
p4738
sV[7,7]
p4739
V7176.825396825397
p4740
sV[2,1]
p4741
V9728.888888888889
p4742
sV[3,7]
p4743
V15824.603174603175
p4744
sV[23,3]
p4745
V10210.589569160999
p4746
sV[6,0]
p4747
V5551.678004535147
p4748
sV[23,2]
p4749
V12899.206349206348
p4750
sV[12,3]
p4751
V15595.328798185941
p4752
sV[27,0]
p4753
V11198.843537414967
p4754
sV[17,1]
p4755
V9086.757369614512
p4756
sV[16,3]
p4757
V9494.85260770975
p4758
sV[9,2]
p4759
V7927.02947845805
p4760
sV[4,3]
p4761
V13863.333333333334
p4762
sV[26,5]
p4763
V13572.766439909297
p4764
sV[29,5]
p4765
V9014.240362811792
p4766
sV[8,2]
p4767
V12752.879818594105
p4768
sV[15,5]
p4769
V12217.210884353743
p4770
sV[17,2]
p4771
V10369.274376417234
p4772
sV[0,3]
p4773
V19377.256235827666
p4774
sV[9,5]
p4775
V16903.718820861675
p4776
sV[19,7]
p4777
V9904.671201814059
p4778
sV[25,6]
p4779
V18266.25850340136
p4780
sV[21,7]
p4781
V33140.0
p4782
sV[22,3]
p4783
V19778.843537414967
p4784
sV[8,7]
p4785
V11649.546485260771
p4786
sV[18,0]
p4787
V14750.498866213153
p4788
sV[19,6]
p4789
NsV[25,0]
p4790
V11424.308390022676
p4791
sV[14,1]
p4792
V14281.746031746032
p4793
sV[3,5]
p4794
V19833.061224489797
p4795
sV[12,2]
p4796
V9330.975056689344
p4797
sV[20,7]
p4798
V10209.319727891156
p4799
sV[23,1]
p4800
V11747.823129251701
p4801
sV[28,4]
p4802
V32254.46712018141
p4803
sV[6,5]
p4804
V6053.922902494331
p4805
sV[7,3]
p4806
V6594.85260770975
p4807
sV[27,7]
p4808
V10054.331065759638
p4809
sV[26,1]
p4810
V14362.312925170068
p4811
sV[1,5]
p4812
V12633.310657596372
p4813
sV[4,4]
p4814
V9324.081632653062
p4815
sV[2,6]
p4816
V13665.192743764173
p4817
sV[10,1]
p4818
V12685.102040816328
p4819
sV[15,6]
p4820
V17978.344671201816
p4821
sV[29,0]
p4822
V8833.356009070296
p4823
sV[13,4]
p4824
NsV[5,7]
p4825
V11530.839002267574
p4826
sV[9,4]
p4827
V12672.1768707483
p4828
sV[13,0]
p4829
V14043.718820861677
p4830
sV[22,7]
p4831
V12534.331065759638
p4832
sV[24,7]
p4833
V9940.090702947846
p4834
sV[18,7]
p4835
V16102.993197278913
p4836
sV[8,4]
p4837
V9702.585034013606
p4838
sV[0,0]
p4839
V13088.707482993197
p4840
sV[24,0]
p4841
V7636.780045351475
p4842
sV[11,5]
p4843
V12308.91156462585
p4844
sV[7,5]
p4845
V8702.403628117914
p4846
sV[20,4]
p4847
V12341.609977324262
p4848
sV[23,0]
p4849
V11920.045351473924
p4850
sV[14,0]
p4851
V12180.748299319728
p4852
sV[1,3]
p4853
V11693.265306122448
p4854
sV[7,2]
p4855
V7772.857142857143
p4856
sV[11,7]
p4857
V12647.98185941043
p4858
sV[12,1]
p4859
V13516.07709750567
p4860
sV[27,6]
p4861
V11571.972789115647
p4862
sV[1,4]
p4863
V12569.727891156463
p4864
sV[16,1]
p4865
V10400.430839002269
p4866
sV[4,5]
p4867
V17814.126984126986
p4868
sV[6,6]
p4869
V6265.578231292518
p4870
sV[2,7]
p4871
V7904.693877551021
p4872
sV[15,7]
p4873
V8859.115646258504
p4874
sV[29,7]
p4875
V11140.136054421768
p4876
sV[10,0]
p4877
V6350.566893424037
p4878
sV[26,2]
p4879
V12562.97052154195
p4880
sV[22,2]
p4881
V14235.124716553288
p4882
sV[5,6]
p4883
V15672.19954648526
p4884
sV[15,0]
p4885
V8500.95238095238
p4886
sV[18,2]
p4887
V12626.394557823129
p4888
sV[17,4]
p4889
V13242.199546485263
p4890
sV[8,1]
p4891
V10182.49433106576
p4892
sV[28,2]
p4893
V26268.91156462585
p4894
sV[5,1]
p4895
V12477.256235827666
p4896
sV[21,1]
p4897
V15523.151927437642
p4898
sV[0,5]
p4899
V14861.746031746032
p4900
sV[22,6]
p4901
V12130.566893424037
p4902
sV[14,3]
p4903
V13597.505668934242
p4904
sV[19,0]
p4905
V5858.730158730159
p4906
sV[25,2]
p4907
V16067.256235827663
p4908
sV[20,1]
p4909
V13116.55328798186
p4910
sV[23,6]
p4911
V11346.07709750567
p4912
sV[27,4]
p4913
V10910.113378684808
p4914
sV[28,6]
p4915
NsV[22,5]
p4916
V14228.095238095239
p4917
sV[3,3]
p4918
V17124.21768707483
p4919
sV[1,7]
p4920
V13698.4126984127
p4921
sV[4,6]
p4922
V43518.594104308395
p4923
sV[2,4]
p4924
V12483.42403628118
p4925
sV[23,4]
p4926
V12384.671201814059
p4927
sV[10,3]
p4928
V15397.414965986394
p4929
sV[6,3]
p4930
V6866.643990929705
p4931
sV[17,0]
p4932
V9381.315192743765
p4933
sV[12,4]
p4934
V15021.972789115647
p4935
sV[22,1]
p4936
V13121.927437641723
p4937
sV[9,7]
p4938
V36951.47392290249
p4939
sV[24,6]
p4940
V8822.97052154195
p4941
sV[11,1]
p4942
V14364.603174603175
p4943
sV[13,2]
p4944
V11910.2947845805
p4945
sV[8,6]
p4946
V12438.684807256235
p4947
sV[15,1]
p4948
V10418.616780045351
p4949
sV[0,2]
p4950
V16522.31292517007
p4951
sV[9,6]
p4952
V12296.621315192744
p4953
sV[16,4]
p4954
V10540.430839002267
p4955
sV[5,0]
p4956
V9852.267573696146
p4957
sV[18,1]
p4958
V14663.015873015873
p4959
sV[21,0]
p4960
V31385.396825396823
p4961
sV[25,1]
p4962
V16750.95238095238
p4963
sV[20,6]
p4964
V9680.181405895692
p4965
sV[19,1]
p4966
V19640.430839002267
p4967
sV[11,6]
p4968
V10440.839002267574
p4969
sV[24,1]
p4970
V10624.739229024943
p4971
sV[3,2]
p4972
V13673.968253968254
p4973
sV[14,2]
p4974
V24005.034013605444
p4975
sV[16,0]
p4976
V9471.587301587302
p4977
sV[4,7]
p4978
V10552.403628117912
p4979
sV[28,0]
p4980
V11346.507936507936
p4981
sV[6,4]
p4982
V7038.1405895691605
p4983
sV[7,0]
p4984
V6230.226757369615
p4985
sV[23,7]
p4986
V9134.739229024943
p4987
sV[10,2]
p4988
V12207.210884353743
p4989
sV[16,7]
p4990
V12310.453514739229
p4991
sV[1,6]
p4992
V16490.61224489796
p4993
sV[10,6]
p4994
V14582.721088435374
p4995
sV[12,7]
p4996
V13803.90022675737
p4997
sV[26,0]
p4998
V9855.079365079366
p4999
sV[29,1]
p5000
V8989.251700680272
p5001
sV[2,5]
p5002
V8970.612244897959
p5003
sV[29,2]
p5004
V9495.510204081633
p5005
sV[26,4]
p5006
V13674.036281179138
p5007
sV[17,7]
p5008
NsV[13,3]
p5009
V9849.818594104308
p5010
sa(dp5011
V[5,3]
p5012
V17737.210884353743
p5013
sV[21,3]
p5014
V20058.43537414966
p5015
sV[20,3]
p5016
NsV[19,2]
p5017
V16752.358276643994
p5018
sV[25,4]
p5019
V21199.97732426304
p5020
sV[11,3]
p5021
V15079.36507936508
p5022
sV[24,2]
p5023
V9838.59410430839
p5024
sV[18,4]
p5025
V15112.086167800455
p5026
sV[14,5]
p5027
V22541.451247165533
p5028
sV[3,1]
p5029
V12525.238095238095
p5030
sV[0,7]
p5031
V29174.353741496598
p5032
sV[7,6]
p5033
V14335.510204081633
p5034
sV[3,6]
p5035
V18351.882086167803
p5036
sV[1,1]
p5037
V12129.115646258504
p5038
sV[27,3]
p5039
V14441.5873015873
p5040
sV[12,6]
p5041
V25772.562358276646
p5042
sV[2,2]
p5043
V12796.190476190477
p5044
sV[4,0]
p5045
V12962.040816326531
p5046
sV[6,1]
p5047
V10488.412698412698
p5048
sV[10,5]
p5049
V10430.408163265307
p5050
sV[8,3]
p5051
V14082.403628117914
p5052
sV[29,4]
p5053
V17863.968253968254
p5054
sV[9,1]
p5055
V10948.253968253968
p5056
sV[21,2]
p5057
V16642.879818594105
p5058
sV[15,3]
p5059
V10540.27210884354
p5060
sV[18,3]
p5061
V14453.514739229026
p5062
sV[8,0]
p5063
V13177.142857142859
p5064
sV[19,3]
p5065
V21835.374149659863
p5066
sV[25,3]
p5067
V19961.08843537415
p5068
sV[26,7]
p5069
V14888.639455782313
p5070
sV[5,2]
p5071
V14845.80498866213
p5072
sV[21,6]
p5073
V23621.927437641723
p5074
sV[16,6]
p5075
V16143.786848072561
p5076
sV[3,0]
p5077
V7333.1292517006805
p5078
sV[0,4]
p5079
V17735.17006802721
p5080
sV[20,0]
p5081
V10746.57596371882
p5082
sV[22,0]
p5083
V12913.945578231293
p5084
sV[14,4]
p5085
V25602.766439909297
p5086
sV[7,1]
p5087
V16021.292517006803
p5088
sV[11,0]
p5089
V14422.312925170068
p5090
sV[24,3]
p5091
V12164.308390022676
p5092
sV[27,5]
p5093
V10869.251700680274
p5094
sV[28,1]
p5095
V15850.340136054421
p5096
sV[23,5]
p5097
V17901.995464852607
p5098
sV[1,0]
p5099
V13557.868480725623
p5100
sV[16,5]
p5101
V24584.51247165533
p5102
sV[17,6]
p5103
V22835.736961451246
p5104
sV[12,5]
p5105
V22173.378684807256
p5106
sV[27,2]
p5107
V15674.943310657596
p5108
sV[2,3]
p5109
V27034.53514739229
p5110
sV[22,4]
p5111
V19676.643990929704
p5112
sV[29,3]
p5113
V11480.022675736962
p5114
sV[4,1]
p5115
V38684.19501133787
p5116
sV[13,1]
p5117
V15043.310657596372
p5118
sV[6,2]
p5119
V8593.106575963719
p5120
sV[26,6]
p5121
V16301.541950113378
p5122
sV[10,4]
p5123
V14154.761904761905
p5124
sV[9,0]
p5125
V15196.439909297053
p5126
sV[13,6]
p5127
V15366.916099773243
p5128
sV[16,2]
p5129
V11866.485260770976
p5130
sV[5,5]
p5131
V13725.918367346938
p5132
sV[8,5]
p5133
V12167.845804988663
p5134
sV[0,1]
p5135
V20992.108843537415
p5136
sV[14,7]
p5137
V14623.854875283447
p5138
sV[21,5]
p5139
V24848.798185941043
p5140
sV[7,4]
p5141
V7752.222222222223
p5142
sV[17,3]
p5143
V14919.795918367347
p5144
sV[24,4]
p5145
V8767.029478458051
p5146
sV[18,6]
p5147
V17689.954648526076
p5148
sV[13,5]
p5149
V13849.773242630386
p5150
sV[19,4]
p5151
V21297.437641723354
p5152
sV[1,2]
p5153
V12150.340136054423
p5154
sV[20,5]
p5155
V25704.82993197279
p5156
sV[11,4]
p5157
V14535.215419501134
p5158
sV[12,0]
p5159
V16779.297052154194
p5160
sV[27,1]
p5161
V14022.312925170068
p5162
sV[28,5]
p5163
V16742.94784580499
p5164
sV[28,7]
p5165
V14659.637188208617
p5166
sV[2,0]
p5167
V9195.895691609978
p5168
sV[3,4]
p5169
V12553.446712018142
p5170
sV[17,5]
p5171
V13618.458049886622
p5172
sV[4,2]
p5173
V18190.77097505669
p5174
sV[6,7]
p5175
V5851.473922902494
p5176
sV[10,7]
p5177
V13774.421768707483
p5178
sV[15,2]
p5179
V14235.14739229025
p5180
sV[9,3]
p5181
V9404.172335600908
p5182
sV[14,6]
p5183
V9510.385487528345
p5184
sV[26,3]
p5185
V12519.7052154195
p5186
sV[15,4]
p5187
V14438.117913832199
p5188
sV[29,6]
p5189
V11645.873015873016
p5190
sV[13,7]
p5191
V14148.14058956916
p5192
sV[5,4]
p5193
V13425.827664399094
p5194
sV[0,6]
p5195
V17556.507936507936
p5196
sV[25,5]
p5197
V19836.689342403628
p5198
sV[20,2]
p5199
V31352.086167800455
p5200
sV[18,5]
p5201
V21515.691609977323
p5202
sV[28,3]
p5203
V15466.099773242631
p5204
sV[21,4]
p5205
V33693.44671201814
p5206
sV[11,2]
p5207
V12460.612244897959
p5208
sV[24,5]
p5209
V9730.521541950113
p5210
sV[25,7]
p5211
V18927.414965986394
p5212
sV[19,5]
p5213
V25994.331065759638
p5214
sV[7,7]
p5215
V9334.875283446712
p5216
sV[2,1]
p5217
V11563.832199546485
p5218
sV[3,7]
p5219
V22324.625850340137
p5220
sV[23,3]
p5221
V12222.517006802722
p5222
sV[6,0]
p5223
V6900.022675736961
p5224
sV[23,2]
p5225
V15988.458049886622
p5226
sV[12,3]
p5227
V20854.42176870748
p5228
sV[27,0]
p5229
V13222.698412698413
p5230
sV[17,1]
p5231
V10534.08163265306
p5232
sV[16,3]
p5233
V11082.630385487528
p5234
sV[9,2]
p5235
V9113.968253968254
p5236
sV[4,3]
p5237
V15184.580498866213
p5238
sV[26,5]
p5239
V15916.893424036281
p5240
sV[29,5]
p5241
V10760.2947845805
p5242
sV[8,2]
p5243
V20276.73469387755
p5244
sV[15,5]
p5245
V14295.034013605444
p5246
sV[17,2]
p5247
V12887.165532879819
p5248
sV[0,3]
p5249
V29822.517006802722
p5250
sV[9,5]
p5251
V20224.444444444445
p5252
sV[19,7]
p5253
V11712.426303854876
p5254
sV[25,6]
p5255
V21822.04081632653
p5256
sV[21,7]
p5257
V43841.02040816327
p5258
sV[22,3]
p5259
V22473.650793650795
p5260
sV[8,7]
p5261
V13548.458049886622
p5262
sV[18,0]
p5263
V17083.038548752837
p5264
sV[19,6]
p5265
NsV[25,0]
p5266
V13478.208616780046
p5267
sV[14,1]
p5268
V17269.84126984127
p5269
sV[3,5]
p5270
V23875.78231292517
p5271
sV[12,2]
p5272
V11137.00680272109
p5273
sV[20,7]
p5274
V12362.811791383221
p5275
sV[23,1]
p5276
V13823.945578231293
p5277
sV[28,4]
p5278
NsV[6,5]
p5279
V7671.156462585034
p5280
sV[7,3]
p5281
V7544.195011337869
p5282
sV[27,7]
p5283
V12680.181405895692
p5284
sV[26,1]
p5285
V16656.689342403628
p5286
sV[1,5]
p5287
V14699.047619047618
p5288
sV[4,4]
p5289
V11021.020408163266
p5290
sV[2,6]
p5291
V16097.732426303857
p5292
sV[10,1]
p5293
V15091.700680272108
p5294
sV[15,6]
p5295
V30731.655328798188
p5296
sV[29,0]
p5297
V10370.725623582766
p5298
sV[13,4]
p5299
NsV[5,7]
p5300
NsV[9,4]
p5301
V23039.97732426304
p5302
sV[13,0]
p5303
V16572.312925170067
p5304
sV[22,7]
p5305
V14935.827664399094
p5306
sV[24,7]
p5307
V11191.56462585034
p5308
sV[18,7]
p5309
V18534.353741496598
p5310
sV[8,4]
p5311
V22204.0589569161
p5312
sV[0,0]
p5313
V15822.108843537417
p5314
sV[24,0]
p5315
V11643.446712018142
p5316
sV[11,5]
p5317
V15023.083900226757
p5318
sV[7,5]
p5319
V10031.496598639456
p5320
sV[20,4]
p5321
V20966.73469387755
p5322
sV[23,0]
p5323
V13638.299319727892
p5324
sV[14,0]
p5325
V14213.58276643991
p5326
sV[1,3]
p5327
V13674.37641723356
p5328
sV[7,2]
p5329
V13472.49433106576
p5330
sV[11,7]
p5331
V14617.573696145126
p5332
sV[12,1]
p5333
V15901.587301587302
p5334
sV[27,6]
p5335
V13355.78231292517
p5336
sV[1,4]
p5337
V14433.174603174602
p5338
sV[16,1]
p5339
V12419.297052154196
p5340
sV[4,5]
p5341
V21528.185941043084
p5342
sV[6,6]
p5343
V7385.986394557824
p5344
sV[2,7]
p5345
V9679.07029478458
p5346
sV[15,7]
p5347
V10830.0
p5348
sV[29,7]
p5349
V14933.10657596372
p5350
sV[10,0]
p5351
V7703.628117913832
p5352
sV[26,2]
p5353
V14672.947845804989
p5354
sV[22,2]
p5355
V16375.918367346942
p5356
sV[5,6]
p5357
V17614.285714285714
p5358
sV[15,0]
p5359
V10337.32426303855
p5360
sV[18,2]
p5361
V14958.820861678005
p5362
sV[17,4]
p5363
V16674.920634920636
p5364
sV[8,1]
p5365
V12029.546485260771
p5366
sV[28,2]
p5367
V41583.74149659864
p5368
sV[5,1]
p5369
V14781.904761904761
p5370
sV[21,1]
p5371
V17527.755102040817
p5372
sV[0,5]
p5373
V17721.224489795917
p5374
sV[22,6]
p5375
V14805.419501133787
p5376
sV[14,3]
p5377
V15665.78231292517
p5378
sV[19,0]
p5379
V7840.544217687075
p5380
sV[25,2]
p5381
V19056.780045351472
p5382
sV[20,1]
p5383
V15382.993197278913
p5384
sV[23,6]
p5385
V13935.578231292517
p5386
sV[27,4]
p5387
V14385.714285714286
p5388
sV[28,6]
p5389
NsV[22,5]
p5390
V16619.614512471657
p5391
sV[3,3]
p5392
V25326.41723356009
p5393
sV[1,7]
p5394
V16307.165532879819
p5395
sV[4,6]
p5396
V44855.102040816324
p5397
sV[2,4]
p5398
V14635.804988662132
p5399
sV[23,4]
p5400
V14217.48299319728
p5401
sV[10,3]
p5402
V17264.852607709752
p5403
sV[6,3]
p5404
V7871.746031746032
p5405
sV[17,0]
p5406
V11129.795918367348
p5407
sV[12,4]
p5408
V19006.98412698413
p5409
sV[22,1]
p5410
V15173.718820861679
p5411
sV[9,7]
p5412
NsV[24,6]
p5413
V11124.467120181405
p5414
sV[11,1]
p5415
V16602.67573696145
p5416
sV[13,2]
p5417
V14353.242630385488
p5418
sV[8,6]
p5419
V17738.7074829932
p5420
sV[15,1]
p5421
V12141.315192743765
p5422
sV[0,2]
p5423
NsV[9,6]
p5424
V13683.560090702947
p5425
sV[16,4]
p5426
V13105.759637188208
p5427
sV[5,0]
p5428
V16283.650793650793
p5429
sV[18,1]
p5430
V17204.69387755102
p5431
sV[21,0]
p5432
NsV[25,1]
p5433
V19573.12925170068
p5434
sV[20,6]
p5435
V11729.38775510204
p5436
sV[19,1]
p5437
V28914.444444444445
p5438
sV[11,6]
p5439
V12352.426303854874
p5440
sV[24,1]
p5441
V12266.39455782313
p5442
sV[3,2]
p5443
V15877.573696145126
p5444
sV[14,2]
p5445
V26001.315192743765
p5446
sV[16,0]
p5447
V10861.08843537415
p5448
sV[4,7]
p5449
V12444.467120181405
p5450
sV[28,0]
p5451
V13306.734693877552
p5452
sV[6,4]
p5453
V8380.181405895693
p5454
sV[7,0]
p5455
V7233.106575963719
p5456
sV[23,7]
p5457
V10828.820861678005
p5458
sV[10,2]
p5459
V13759.546485260771
p5460
sV[16,7]
p5461
V14304.671201814059
p5462
sV[1,6]
p5463
V18441.700680272108
p5464
sV[10,6]
p5465
V18018.843537414967
p5466
sV[12,7]
p5467
V16390.725623582766
p5468
sV[26,0]
p5469
V11625.351473922903
p5470
sV[29,1]
p5471
V11144.285714285716
p5472
sV[2,5]
p5473
V10580.907029478458
p5474
sV[29,2]
p5475
V11159.36507936508
p5476
sV[26,4]
p5477
V16201.043083900227
p5478
sV[17,7]
p5479
NsV[13,3]
p5480
V12191.904761904763
p5481
sa(dp5482
V[5,3]
p5483
V20086.984126984127
p5484
sV[21,3]
p5485
V38505.056689342404
p5486
sV[20,3]
p5487
NsV[19,2]
p5488
V25863.7641723356
p5489
sV[25,4]
p5490
V24159.750566893425
p5491
sV[11,3]
p5492
V20832.78911564626
p5493
sV[24,2]
p5494
V11216.281179138323
p5495
sV[18,4]
p5496
V17599.931972789116
p5497
sV[14,5]
p5498
V27155.26077097506
p5499
sV[3,1]
p5500
V14276.984126984127
p5501
sV[0,7]
p5502
V37487.95918367347
p5503
sV[7,6]
p5504
V18523.219954648524
p5505
sV[3,6]
p5506
V20734.013605442175
p5507
sV[1,1]
p5508
V13855.532879818595
p5509
sV[27,3]
p5510
V17167.868480725625
p5511
sV[12,6]
p5512
V29694.42176870748
p5513
sV[2,2]
p5514
V19074.399092970525
p5515
sV[4,0]
p5516
V13881.020408163266
p5517
sV[6,1]
p5518
V10999.160997732426
p5519
sV[10,5]
p5520
V13983.514739229026
p5521
sV[8,3]
p5522
V16575.646258503402
p5523
sV[29,4]
p5524
V25908.321995464852
p5525
sV[9,1]
p5526
V12253.28798185941
p5527
sV[21,2]
p5528
V22874.965986394556
p5529
sV[15,3]
p5530
V11789.319727891156
p5531
sV[18,3]
p5532
V16696.145124716553
p5533
sV[8,0]
p5534
V14978.185941043084
p5535
sV[19,3]
p5536
V24876.34920634921
p5537
sV[25,3]
p5538
V22584.08163265306
p5539
sV[26,7]
p5540
V17156.666666666668
p5541
sV[5,2]
p5542
V17989.750566893425
p5543
sV[21,6]
p5544
V27384.98866213152
p5545
sV[16,6]
p5546
V17826.281179138325
p5547
sV[3,0]
p5548
V12293.514739229026
p5549
sV[0,4]
p5550
NsV[20,0]
p5551
V12275.260770975057
p5552
sV[22,0]
p5553
V14901.043083900227
p5554
sV[14,4]
p5555
V28045.19274376417
p5556
sV[7,1]
p5557
V20171.70068027211
p5558
sV[11,0]
p5559
V16771.791383219956
p5560
sV[24,3]
p5561
V13562.65306122449
p5562
sV[27,5]
p5563
V12445.215419501134
p5564
sV[28,1]
p5565
V18943.151927437644
p5566
sV[23,5]
p5567
V24354.580498866213
p5568
sV[1,0]
p5569
V15458.208616780046
p5570
sV[16,5]
p5571
V26255.510204081635
p5572
sV[17,6]
p5573
V44946.598639455784
p5574
sV[12,5]
p5575
V25709.637188208617
p5576
sV[27,2]
p5577
V19287.16553287982
p5578
sV[2,3]
p5579
NsV[22,4]
p5580
V21794.51247165533
p5581
sV[29,3]
p5582
V13040.317460317461
p5583
sV[4,1]
p5584
V43984.19501133787
p5585
sV[13,1]
p5586
V16860.02267573696
p5587
sV[6,2]
p5588
V9494.263038548754
p5589
sV[26,6]
p5590
V18697.16553287982
p5591
sV[10,4]
p5592
V26556.507936507936
p5593
sV[9,0]
p5594
V16354.444444444443
p5595
sV[13,6]
p5596
V20377.414965986398
p5597
sV[16,2]
p5598
V13752.131519274377
p5599
sV[5,5]
p5600
V15700.92970521542
p5601
sV[8,5]
p5602
V13795.532879818595
p5603
sV[0,1]
p5604
V24144.467120181405
p5605
sV[14,7]
p5606
V17053.968253968254
p5607
sV[21,5]
p5608
V31113.197278911564
p5609
sV[7,4]
p5610
V9320.226757369614
p5611
sV[17,3]
p5612
V17065.03401360544
p5613
sV[24,4]
p5614
V9653.92290249433
p5615
sV[18,6]
p5616
V20476.507936507936
p5617
sV[13,5]
p5618
V15805.102040816326
p5619
sV[19,4]
p5620
V23124.852607709752
p5621
sV[1,2]
p5622
V14182.1768707483
p5623
sV[20,5]
p5624
NsV[11,4]
p5625
V19212.993197278913
p5626
sV[12,0]
p5627
V18074.058956916102
p5628
sV[27,1]
p5629
V16965.28344671202
p5630
sV[28,5]
p5631
V18140.2947845805
p5632
sV[28,7]
p5633
V17076.099773242633
p5634
sV[2,0]
p5635
V10930.113378684808
p5636
sV[3,4]
p5637
V14489.818594104308
p5638
sV[17,5]
p5639
V15593.42403628118
p5640
sV[4,2]
p5641
V34580.657596371886
p5642
sV[6,7]
p5643
V7213.764172335601
p5644
sV[10,7]
p5645
V15816.507936507938
p5646
sV[15,2]
p5647
V26549.297052154194
p5648
sV[9,3]
p5649
V10464.625850340137
p5650
sV[14,6]
p5651
V10900.884353741496
p5652
sV[26,3]
p5653
V15193.12925170068
p5654
sV[15,4]
p5655
V22089.569160997733
p5656
sV[29,6]
p5657
V13608.43537414966
p5658
sV[13,7]
p5659
V15913.015873015873
p5660
sV[5,4]
p5661
V15449.682539682539
p5662
sV[0,6]
p5663
V20520.31746031746
p5664
sV[25,5]
p5665
V22763.26530612245
p5666
sV[20,2]
p5667
NsV[18,5]
p5668
V26281.179138321997
p5669
sV[28,3]
p5670
V19567.05215419501
p5671
sV[21,4]
p5672
V49372.51700680272
p5673
sV[11,2]
p5674
V16431.814058956916
p5675
sV[24,5]
p5676
V15998.503401360544
p5677
sV[25,7]
p5678
V21837.619047619046
p5679
sV[19,5]
p5680
V29431.83673469388
p5681
sV[7,7]
p5682
V10413.401360544218
p5683
sV[2,1]
p5684
V15706.394557823129
p5685
sV[3,7]
p5686
V24055.714285714286
p5687
sV[23,3]
p5688
V14405.102040816328
p5689
sV[6,0]
p5690
V10158.095238095239
p5691
sV[23,2]
p5692
V20063.62811791383
p5693
sV[12,3]
p5694
V24050.385487528347
p5695
sV[27,0]
p5696
V15236.281179138321
p5697
sV[17,1]
p5698
V13198.117913832199
p5699
sV[16,3]
p5700
V12742.78911564626
p5701
sV[9,2]
p5702
V10296.621315192744
p5703
sV[4,3]
p5704
V16465.804988662134
p5705
sV[26,5]
p5706
V18110.839002267574
p5707
sV[29,5]
p5708
V12228.299319727892
p5709
sV[8,2]
p5710
V22116.666666666668
p5711
sV[15,5]
p5712
V38113.71882086168
p5713
sV[17,2]
p5714
V14543.764172335601
p5715
sV[0,3]
p5716
NsV[9,5]
p5717
V22061.11111111111
p5718
sV[19,7]
p5719
V13234.988662131518
p5720
sV[25,6]
p5721
V24627.414965986398
p5722
sV[21,7]
p5723
NsV[22,3]
p5724
V25765.351473922903
p5725
sV[8,7]
p5726
V15596.371882086169
p5727
sV[18,0]
p5728
V19263.12925170068
p5729
sV[19,6]
p5730
NsV[25,0]
p5731
V15441.06575963719
p5732
sV[14,1]
p5733
V19458.09523809524
p5734
sV[3,5]
p5735
V31725.41950113379
p5736
sV[12,2]
p5737
V15017.34693877551
p5738
sV[20,7]
p5739
V14350.61224489796
p5740
sV[23,1]
p5741
V15509.478458049887
p5742
sV[28,4]
p5743
NsV[6,5]
p5744
V13547.50566893424
p5745
sV[7,3]
p5746
V9831.315192743765
p5747
sV[27,7]
p5748
V14464.421768707483
p5749
sV[26,1]
p5750
V19493.356009070296
p5751
sV[1,5]
p5752
V17097.68707482993
p5753
sV[4,4]
p5754
V14162.81179138322
p5755
sV[2,6]
p5756
V18475.691609977326
p5757
sV[10,1]
p5758
V36499.183673469386
p5759
sV[15,6]
p5760
NsV[29,0]
p5761
V15645.374149659863
p5762
sV[13,4]
p5763
NsV[5,7]
p5764
NsV[9,4]
p5765
V39582.01814058957
p5766
sV[13,0]
p5767
V26828.68480725624
p5768
sV[22,7]
p5769
V19307.460317460318
p5770
sV[24,7]
p5771
V11877.210884353743
p5772
sV[18,7]
p5773
V21555.260770975055
p5774
sV[8,4]
p5775
V24458.526077097507
p5776
sV[0,0]
p5777
V20342.31292517007
p5778
sV[24,0]
p5779
V47518.86621315193
p5780
sV[11,5]
p5781
V16970.884353741498
p5782
sV[7,5]
p5783
V12643.809523809525
p5784
sV[20,4]
p5785
NsV[23,0]
p5786
V15649.931972789116
p5787
sV[14,0]
p5788
V16339.455782312925
p5789
sV[1,3]
p5790
V15770.272108843537
p5791
sV[7,2]
p5792
NsV[11,7]
p5793
V17886.07709750567
p5794
sV[12,1]
p5795
V17747.641723356006
p5796
sV[27,6]
p5797
V15156.825396825398
p5798
sV[1,4]
p5799
V16266.689342403626
p5800
sV[16,1]
p5801
V14503.537414965987
p5802
sV[4,5]
p5803
V27315.804988662134
p5804
sV[6,6]
p5805
V8328.004535147393
p5806
sV[2,7]
p5807
V11473.151927437642
p5808
sV[15,7]
p5809
V11847.551020408164
p5810
sV[29,7]
p5811
V16700.340136054423
p5812
sV[10,0]
p5813
V9268.208616780044
p5814
sV[26,2]
p5815
V16761.315192743765
p5816
sV[22,2]
p5817
V18476.984126984127
p5818
sV[5,6]
p5819
V19306.235827664397
p5820
sV[15,0]
p5821
V11578.231292517006
p5822
sV[18,2]
p5823
V17329.092970521542
p5824
sV[17,4]
p5825
V19560.045351473924
p5826
sV[8,1]
p5827
V13881.882086167801
p5828
sV[28,2]
p5829
NsV[5,1]
p5830
V17312.04081632653
p5831
sV[21,1]
p5832
V19604.580498866213
p5833
sV[0,5]
p5834
V25917.596371882086
p5835
sV[22,6]
p5836
V18176.598639455784
p5837
sV[14,3]
p5838
V17734.126984126986
p5839
sV[19,0]
p5840
V16136.462585034014
p5841
sV[25,2]
p5842
V22302.743764172337
p5843
sV[20,1]
p5844
V18924.51247165533
p5845
sV[23,6]
p5846
V15842.630385487528
p5847
sV[27,4]
p5848
V16384.21768707483
p5849
sV[28,6]
p5850
NsV[22,5]
p5851
V18831.791383219956
p5852
sV[3,3]
p5853
V27570.47619047619
p5854
sV[1,7]
p5855
V18414.21768707483
p5856
sV[4,6]
p5857
NsV[2,4]
p5858
V16967.233560090706
p5859
sV[23,4]
p5860
V16345.328798185943
p5861
sV[10,3]
p5862
V19459.50113378685
p5863
sV[6,3]
p5864
V8769.342403628118
p5865
sV[17,0]
p5866
V16781.065759637186
p5867
sV[12,4]
p5868
V21024.421768707485
p5869
sV[22,1]
p5870
V17674.920634920636
p5871
sV[9,7]
p5872
NsV[24,6]
p5873
V12148.027210884355
p5874
sV[11,1]
p5875
V18755.62358276644
p5876
sV[13,2]
p5877
V17818.276643990932
p5878
sV[8,6]
p5879
V20139.50113378685
p5880
sV[15,1]
p5881
V14207.573696145126
p5882
sV[0,2]
p5883
NsV[9,6]
p5884
NsV[16,4]
p5885
V14876.734693877552
p5886
sV[5,0]
p5887
V20268.39002267574
p5888
sV[18,1]
p5889
V19858.866213151927
p5890
sV[21,0]
p5891
NsV[25,1]
p5892
V27893.87755102041
p5893
sV[20,6]
p5894
V13775.442176870749
p5895
sV[19,1]
p5896
V40430.56689342404
p5897
sV[11,6]
p5898
V15108.049886621317
p5899
sV[24,1]
p5900
V13878.707482993197
p5901
sV[3,2]
p5902
V18808.004535147393
p5903
sV[14,2]
p5904
V29754.557823129253
p5905
sV[16,0]
p5906
V12491.360544217689
p5907
sV[4,7]
p5908
V14453.650793650795
p5909
sV[28,0]
p5910
V27203.265306122452
p5911
sV[6,4]
p5912
V9763.378684807256
p5913
sV[7,0]
p5914
V8411.768707482994
p5915
sV[23,7]
p5916
V12884.036281179138
p5917
sV[10,2]
p5918
V15223.877551020409
p5919
sV[16,7]
p5920
V16594.331065759638
p5921
sV[1,6]
p5922
V20571.26984126984
p5923
sV[10,6]
p5924
V21798.684807256235
p5925
sV[12,7]
p5926
V20559.25170068027
p5927
sV[26,0]
p5928
V13566.417233560092
p5929
sV[29,1]
p5930
V22364.081632653062
p5931
sV[2,5]
p5932
V12469.84126984127
p5933
sV[29,2]
p5934
V12641.882086167801
p5935
sV[26,4]
p5936
V18892.448979591838
p5937
sV[17,7]
p5938
NsV[13,3]
p5939
V16433.174603174604
p5940
sa(dp5941
V[5,3]
p5942
V22160.97505668934
p5943
sV[21,3]
p5944
NsV[20,3]
p5945
NsV[19,2]
p5946
V34054.98866213152
p5947
sV[25,4]
p5948
V27065.668934240362
p5949
sV[11,3]
p5950
V24403.968253968254
p5951
sV[24,2]
p5952
V12571.8820861678
p5953
sV[18,4]
p5954
V20069.659863945577
p5955
sV[14,5]
p5956
V30650.385487528347
p5957
sV[3,1]
p5958
V17029.79591836735
p5959
sV[0,7]
p5960
V49250.77097505669
p5961
sV[7,6]
p5962
NsV[3,6]
p5963
V24565.03401360544
p5964
sV[1,1]
p5965
V15961.56462585034
p5966
sV[27,3]
p5967
V24089.81859410431
p5968
sV[12,6]
p5969
V32890.907029478454
p5970
sV[2,2]
p5971
V38591.95011337868
p5972
sV[4,0]
p5973
V35626.439909297056
p5974
sV[6,1]
p5975
V26343.854875283447
p5976
sV[10,5]
p5977
V34627.052154195015
p5978
sV[8,3]
p5979
V19236.122448979593
p5980
sV[29,4]
p5981
V31995.668934240362
p5982
sV[9,1]
p5983
V14036.326530612245
p5984
sV[21,2]
p5985
V31632.31292517007
p5986
sV[15,3]
p5987
V13606.031746031746
p5988
sV[18,3]
p5989
V22692.33560090703
p5990
sV[8,0]
p5991
V17087.800453514737
p5992
sV[19,3]
p5993
V61229.52380952381
p5994
sV[25,3]
p5995
V25711.791383219956
p5996
sV[26,7]
p5997
V19529.251700680274
p5998
sV[5,2]
p5999
V22549.274376417234
p6000
sV[21,6]
p6001
NsV[16,6]
p6002
V19740.861678004534
p6003
sV[3,0]
p6004
V14364.399092970523
p6005
sV[0,4]
p6006
NsV[20,0]
p6007
V33339.88662131519
p6008
sV[22,0]
p6009
V16453.786848072563
p6010
sV[14,4]
p6011
V30524.19501133787
p6012
sV[7,1]
p6013
NsV[11,0]
p6014
V19409.20634920635
p6015
sV[24,3]
p6016
V14959.160997732428
p6017
sV[27,5]
p6018
V14233.469387755102
p6019
sV[28,1]
p6020
V20703.287981859412
p6021
sV[23,5]
p6022
V33862.44897959184
p6023
sV[1,0]
p6024
V17298.571428571428
p6025
sV[16,5]
p6026
V35629.38775510204
p6027
sV[17,6]
p6028
NsV[12,5]
p6029
V28494.285714285717
p6030
sV[27,2]
p6031
V22175.555555555555
p6032
sV[2,3]
p6033
NsV[22,4]
p6034
V35525.079365079364
p6035
sV[29,3]
p6036
V15187.210884353743
p6037
sV[4,1]
p6038
NsV[13,1]
p6039
V18980.317460317463
p6040
sV[6,2]
p6041
V10842.01814058957
p6042
sV[26,6]
p6043
V20976.87074829932
p6044
sV[10,4]
p6045
V34708.59410430839
p6046
sV[9,0]
p6047
V22623.968253968254
p6048
sV[13,6]
p6049
V23468.91156462585
p6050
sV[16,2]
p6051
V15405.17006802721
p6052
sV[5,5]
p6053
V17804.55782312925
p6054
sV[8,5]
p6055
V15629.501133786847
p6056
sV[0,1]
p6057
V28004.53514739229
p6058
sV[14,7]
p6059
V18859.591836734693
p6060
sV[21,5]
p6061
V37686.031746031746
p6062
sV[7,4]
p6063
V10498.934240362812
p6064
sV[17,3]
p6065
V19024.51247165533
p6066
sV[24,4]
p6067
V10878.730158730159
p6068
sV[18,6]
p6069
V23006.621315192744
p6070
sV[13,5]
p6071
V17924.104308390026
p6072
sV[19,4]
p6073
V26964.263038548754
p6074
sV[1,2]
p6075
V16098.480725623585
p6076
sV[20,5]
p6077
NsV[11,4]
p6078
V21443.242630385488
p6079
sV[12,0]
p6080
V22207.369614512474
p6081
sV[27,1]
p6082
V25188.93424036281
p6083
sV[28,5]
p6084
V25770.680272108846
p6085
sV[28,7]
p6086
V20014.80725623583
p6087
sV[2,0]
p6088
V20559.410430839
p6089
sV[3,4]
p6090
V17457.66439909297
p6091
sV[17,5]
p6092
V18056.031746031746
p6093
sV[4,2]
p6094
NsV[6,7]
p6095
V8376.054421768707
p6096
sV[10,7]
p6097
V16924.331065759638
p6098
sV[15,2]
p6099
V32920.56689342404
p6100
sV[9,3]
p6101
V12528.798185941045
p6102
sV[14,6]
p6103
V13290.997732426304
p6104
sV[26,3]
p6105
V17550.02267573696
p6106
sV[15,4]
p6107
V24015.26077097506
p6108
sV[29,6]
p6109
V15962.358276643992
p6110
sV[13,7]
p6111
NsV[5,4]
p6112
V17210.9977324263
p6113
sV[0,6]
p6114
V24018.548752834467
p6115
sV[25,5]
p6116
V25074.01360544218
p6117
sV[20,2]
p6118
NsV[18,5]
p6119
V31835.895691609978
p6120
sV[28,3]
p6121
V21321.541950113377
p6122
sV[21,4]
p6123
NsV[11,2]
p6124
V18427.437641723354
p6125
sV[24,5]
p6126
V19779.95464852608
p6127
sV[25,7]
p6128
V30373.12925170068
p6129
sV[19,5]
p6130
V31088.866213151927
p6131
sV[7,7]
p6132
NsV[2,1]
p6133
V17473.287981859412
p6134
sV[3,7]
p6135
V26056.757369614512
p6136
sV[23,3]
p6137
V20131.201814058957
p6138
sV[6,0]
p6139
V11533.038548752835
p6140
sV[23,2]
p6141
V21748.979591836738
p6142
sV[12,3]
p6143
V54018.662131519275
p6144
sV[27,0]
p6145
V17135.895691609978
p6146
sV[17,1]
p6147
V15035.192743764172
p6148
sV[16,3]
p6149
V15344.920634920636
p6150
sV[9,2]
p6151
V12916.780045351476
p6152
sV[4,3]
p6153
V17793.1746031746
p6154
sV[26,5]
p6155
V20834.557823129253
p6156
sV[29,5]
p6157
V13706.57596371882
p6158
sV[8,2]
p6159
V31431.2925170068
p6160
sV[15,5]
p6161
V51022.74376417234
p6162
sV[17,2]
p6163
V17745.419501133787
p6164
sV[0,3]
p6165
NsV[9,5]
p6166
V26601.40589569161
p6167
sV[19,7]
p6168
V16893.219954648524
p6169
sV[25,6]
p6170
V27760.136054421768
p6171
sV[21,7]
p6172
NsV[22,3]
p6173
V28741.36054421769
p6174
sV[8,7]
p6175
V18586.07709750567
p6176
sV[18,0]
p6177
V24041.904761904763
p6178
sV[19,6]
p6179
NsV[25,0]
p6180
V17363.492063492064
p6181
sV[14,1]
p6182
V22288.548752834467
p6183
sV[3,5]
p6184
V33092.99319727891
p6185
sV[12,2]
p6186
V24636.780045351476
p6187
sV[20,7]
p6188
V16215.600907029479
p6189
sV[23,1]
p6190
V17710.97505668934
p6191
sV[28,4]
p6192
NsV[6,5]
p6193
V21093.560090702947
p6194
sV[7,3]
p6195
V13239.818594104308
p6196
sV[27,7]
p6197
V16218.321995464852
p6198
sV[26,1]
p6199
V24304.897959183672
p6200
sV[1,5]
p6201
V20244.648526077097
p6202
sV[4,4]
p6203
V18010.52154195011
p6204
sV[2,6]
p6205
V23964.852607709752
p6206
sV[10,1]
p6207
NsV[15,6]
p6208
NsV[29,0]
p6209
V23309.65986394558
p6210
sV[13,4]
p6211
NsV[5,7]
p6212
NsV[9,4]
p6213
NsV[13,0]
p6214
NsV[22,7]
p6215
V22635.895691609978
p6216
sV[24,7]
p6217
V15642.721088435375
p6218
sV[18,7]
p6219
V28980.521541950115
p6220
sV[8,4]
p6221
V37878.639455782315
p6222
sV[0,0]
p6223
V24593.560090702947
p6224
sV[24,0]
p6225
V48693.287981859416
p6226
sV[11,5]
p6227
V19111.22448979592
p6228
sV[7,5]
p6229
V14456.961451247165
p6230
sV[20,4]
p6231
NsV[23,0]
p6232
V18069.84126984127
p6233
sV[14,0]
p6234
V18195.60090702948
p6235
sV[1,3]
p6236
V17639.138321995462
p6237
sV[7,2]
p6238
NsV[11,7]
p6239
V21547.891156462585
p6240
sV[12,1]
p6241
V22552.199546485263
p6242
sV[27,6]
p6243
V17113.446712018143
p6244
sV[1,4]
p6245
V18653.945578231294
p6246
sV[16,1]
p6247
V16136.326530612245
p6248
sV[4,5]
p6249
V42737.98185941043
p6250
sV[6,6]
p6251
V9550.975056689342
p6252
sV[2,7]
p6253
V16649.43310657596
p6254
sV[15,7]
p6255
V12893.015873015873
p6256
sV[29,7]
p6257
V18624.897959183672
p6258
sV[10,0]
p6259
V10769.52380952381
p6260
sV[26,2]
p6261
V19480.045351473924
p6262
sV[22,2]
p6263
V20472.63038548753
p6264
sV[5,6]
p6265
V21089.22902494331
p6266
sV[15,0]
p6267
V13299.092970521542
p6268
sV[18,2]
p6269
V19541.85941043084
p6270
sV[17,4]
p6271
V21910.81632653061
p6272
sV[8,1]
p6273
V15514.240362811792
p6274
sV[28,2]
p6275
NsV[5,1]
p6276
V19970.816326530614
p6277
sV[21,1]
p6278
V26001.337868480725
p6279
sV[0,5]
p6280
NsV[22,6]
p6281
V20400.884353741498
p6282
sV[14,3]
p6283
V19668.979591836734
p6284
sV[19,0]
p6285
V28178.934240362814
p6286
sV[25,2]
p6287
V24895.396825396827
p6288
sV[20,1]
p6289
V34287.30158730158
p6290
sV[23,6]
p6291
V18979.614512471657
p6292
sV[27,4]
p6293
V18431.995464852607
p6294
sV[28,6]
p6295
NsV[22,5]
p6296
V21998.4126984127
p6297
sV[3,3]
p6298
V29591.473922902496
p6299
sV[1,7]
p6300
V20792.49433106576
p6301
sV[4,6]
p6302
NsV[2,4]
p6303
V19410.18140589569
p6304
sV[23,4]
p6305
V18839.297052154194
p6306
sV[10,3]
p6307
V26178.185941043088
p6308
sV[6,3]
p6309
V9801.972789115647
p6310
sV[17,0]
p6311
V21823.219954648524
p6312
sV[12,4]
p6313
V25431.08843537415
p6314
sV[22,1]
p6315
V23858.14058956916
p6316
sV[9,7]
p6317
NsV[24,6]
p6318
NsV[11,1]
p6319
V21832.403628117914
p6320
sV[13,2]
p6321
V23851.655328798188
p6322
sV[8,6]
p6323
V22362.789115646257
p6324
sV[15,1]
p6325
V34527.91383219954
p6326
sV[0,2]
p6327
NsV[9,6]
p6328
NsV[16,4]
p6329
V21671.065759637186
p6330
sV[5,0]
p6331
NsV[18,1]
p6332
V23536.73469387755
p6333
sV[21,0]
p6334
NsV[25,1]
p6335
V30510.521541950115
p6336
sV[20,6]
p6337
V19879.591836734693
p6338
sV[19,1]
p6339
NsV[11,6]
p6340
V18622.993197278913
p6341
sV[24,1]
p6342
V15470.657596371882
p6343
sV[3,2]
p6344
V21027.00680272109
p6345
sV[14,2]
p6346
V31467.732426303854
p6347
sV[16,0]
p6348
V13870.317460317461
p6349
sV[4,7]
p6350
V19825.034013605444
p6351
sV[28,0]
p6352
NsV[6,4]
p6353
V11151.746031746032
p6354
sV[7,0]
p6355
V18045.351473922903
p6356
sV[23,7]
p6357
V15767.142857142859
p6358
sV[10,2]
p6359
V16639.02494331066
p6360
sV[16,7]
p6361
V18462.78911564626
p6362
sV[1,6]
p6363
V25833.151927437644
p6364
sV[10,6]
p6365
V27087.709750566893
p6366
sV[12,7]
p6367
V40225.69160997732
p6368
sV[26,0]
p6369
V19451.904761904763
p6370
sV[29,1]
p6371
V27863.809523809527
p6372
sV[2,5]
p6373
V14521.723356009072
p6374
sV[29,2]
p6375
V14706.598639455782
p6376
sV[26,4]
p6377
V21307.505668934242
p6378
sV[17,7]
p6379
NsV[13,3]
p6380
V18393.786848072563
p6381
sa(dp6382
V[5,3]
p6383
NsV[21,3]
p6384
NsV[20,3]
p6385
NsV[19,2]
p6386
NsV[25,4]
p6387
V31060.090702947848
p6388
sV[11,3]
p6389
V26865.28344671202
p6390
sV[24,2]
p6391
V20942.33560090703
p6392
sV[18,4]
p6393
V23015.895691609978
p6394
sV[14,5]
p6395
V32904.01360544218
p6396
sV[3,1]
p6397
V18784.39909297052
p6398
sV[0,7]
p6399
NsV[7,6]
p6400
NsV[3,6]
p6401
NsV[1,1]
p6402
V17737.551020408162
p6403
sV[27,3]
p6404
V32148.004535147393
p6405
sV[12,6]
p6406
V41307.07482993197
p6407
sV[2,2]
p6408
NsV[4,0]
p6409
V37342.01814058957
p6410
sV[6,1]
p6411
V28027.66439909297
p6412
sV[10,5]
p6413
NsV[8,3]
p6414
NsV[29,4]
p6415
V35022.26757369615
p6416
sV[9,1]
p6417
V24716.643990929704
p6418
sV[21,2]
p6419
V37175.62358276644
p6420
sV[15,3]
p6421
V15401.247165532879
p6422
sV[18,3]
p6423
V25619.20634920635
p6424
sV[8,0]
p6425
V19113.786848072563
p6426
sV[19,3]
p6427
NsV[25,3]
p6428
V28491.224489795917
p6429
sV[26,7]
p6430
V22056.5306122449
p6431
sV[5,2]
p6432
V51155.14739229025
p6433
sV[21,6]
p6434
NsV[16,6]
p6435
V21611.428571428572
p6436
sV[3,0]
p6437
V16066.439909297053
p6438
sV[0,4]
p6439
NsV[20,0]
p6440
V37400.680272108846
p6441
sV[22,0]
p6442
V18361.655328798184
p6443
sV[14,4]
p6444
V32413.74149659864
p6445
sV[7,1]
p6446
NsV[11,0]
p6447
V22585.532879818595
p6448
sV[24,3]
p6449
V16493.58276643991
p6450
sV[27,5]
p6451
V18136.417233560092
p6452
sV[28,1]
p6453
V22973.469387755104
p6454
sV[23,5]
p6455
NsV[1,0]
p6456
V19584.37641723356
p6457
sV[16,5]
p6458
V54772.63038548753
p6459
sV[17,6]
p6460
NsV[12,5]
p6461
V35054.39909297052
p6462
sV[27,2]
p6463
V27647.36961451247
p6464
sV[2,3]
p6465
NsV[22,4]
p6466
V42483.08390022676
p6467
sV[29,3]
p6468
V17001.201814058957
p6469
sV[4,1]
p6470
NsV[13,1]
p6471
V21039.20634920635
p6472
sV[6,2]
p6473
V17255.57823129252
p6474
sV[26,6]
p6475
V23628.684807256235
p6476
sV[10,4]
p6477
V38042.857142857145
p6478
sV[9,0]
p6479
NsV[13,6]
p6480
NsV[16,2]
p6481
V25518.820861678007
p6482
sV[5,5]
p6483
V19852.19954648526
p6484
sV[8,5]
p6485
V17676.145124716557
p6486
sV[0,1]
p6487
V33750.7029478458
p6488
sV[14,7]
p6489
V20711.24716553288
p6490
sV[21,5]
p6491
NsV[7,4]
p6492
V12161.655328798186
p6493
sV[17,3]
p6494
V25073.242630385488
p6495
sV[24,4]
p6496
V14157.755102040817
p6497
sV[18,6]
p6498
V25503.809523809527
p6499
sV[13,5]
p6500
V20368.480725623584
p6501
sV[19,4]
p6502
V29304.648526077097
p6503
sV[1,2]
p6504
V18133.15192743764
p6505
sV[20,5]
p6506
NsV[11,4]
p6507
V24520.566893424035
p6508
sV[12,0]
p6509
V23224.39909297052
p6510
sV[27,1]
p6511
V27478.59410430839
p6512
sV[28,5]
p6513
NsV[28,7]
p6514
V22609.909297052156
p6515
sV[2,0]
p6516
NsV[3,4]
p6517
V18959.97732426304
p6518
sV[17,5]
p6519
V19912.766439909297
p6520
sV[4,2]
p6521
NsV[6,7]
p6522
V10210.702947845804
p6523
sV[10,7]
p6524
V34600.49886621315
p6525
sV[15,2]
p6526
V39619.160997732426
p6527
sV[9,3]
p6528
NsV[14,6]
p6529
V14878.775510204083
p6530
sV[26,3]
p6531
V19964.195011337866
p6532
sV[15,4]
p6533
V32862.74376417234
p6534
sV[29,6]
p6535
V17486.59863945578
p6536
sV[13,7]
p6537
NsV[5,4]
p6538
V19197.097505668935
p6539
sV[0,6]
p6540
V28765.668934240362
p6541
sV[25,5]
p6542
V27587.05215419501
p6543
sV[20,2]
p6544
NsV[18,5]
p6545
V34610.74829931973
p6546
sV[28,3]
p6547
V23330.136054421768
p6548
sV[21,4]
p6549
NsV[11,2]
p6550
V21018.276643990932
p6551
sV[24,5]
p6552
V23517.097505668935
p6553
sV[25,7]
p6554
V33044.71655328798
p6555
sV[19,5]
p6556
V32446.598639455788
p6557
sV[7,7]
p6558
NsV[2,1]
p6559
V26985.78231292517
p6560
sV[3,7]
p6561
V27911.360544217685
p6562
sV[23,3]
p6563
NsV[6,0]
p6564
V15140.544217687077
p6565
sV[23,2]
p6566
V26596.417233560092
p6567
sV[12,3]
p6568
NsV[27,0]
p6569
V19068.14058956916
p6570
sV[17,1]
p6571
V16530.272108843536
p6572
sV[16,3]
p6573
V18864.96598639456
p6574
sV[9,2]
p6575
V26558.57142857143
p6576
sV[4,3]
p6577
V24086.621315192744
p6578
sV[26,5]
p6579
V23194.739229024945
p6580
sV[29,5]
p6581
V15105.873015873016
p6582
sV[8,2]
p6583
NsV[15,5]
p6584
V57533.87755102041
p6585
sV[17,2]
p6586
V29504.058956916102
p6587
sV[0,3]
p6588
NsV[9,5]
p6589
V33776.32653061225
p6590
sV[19,7]
p6591
V20445.623582766442
p6592
sV[25,6]
p6593
V44498.02721088435
p6594
sV[21,7]
p6595
NsV[22,3]
p6596
V30998.979591836738
p6597
sV[8,7]
p6598
V20333.42403628118
p6599
sV[18,0]
p6600
V26510.31746031746
p6601
sV[19,6]
p6602
NsV[25,0]
p6603
V21766.598639455784
p6604
sV[14,1]
p6605
V24876.5306122449
p6606
sV[3,5]
p6607
V34561.70068027211
p6608
sV[12,2]
p6609
V31097.188208616783
p6610
sV[20,7]
p6611
V34983.31065759637
p6612
sV[23,1]
p6613
V20462.78911564626
p6614
sV[28,4]
p6615
NsV[6,5]
p6616
V26563.537414965984
p6617
sV[7,3]
p6618
V16139.614512471657
p6619
sV[27,7]
p6620
V18130.068027210884
p6621
sV[26,1]
p6622
V35735.80498866213
p6623
sV[1,5]
p6624
V22477.188208616783
p6625
sV[4,4]
p6626
NsV[2,6]
p6627
NsV[10,1]
p6628
NsV[15,6]
p6629
NsV[29,0]
p6630
V28711.224489795917
p6631
sV[13,4]
p6632
NsV[5,7]
p6633
NsV[9,4]
p6634
NsV[13,0]
p6635
NsV[22,7]
p6636
V26051.24716553288
p6637
sV[24,7]
p6638
V16605.60090702948
p6639
sV[18,7]
p6640
NsV[8,4]
p6641
NsV[0,0]
p6642
V28598.344671201816
p6643
sV[24,0]
p6644
V50148.04988662132
p6645
sV[11,5]
p6646
V24101.269841269845
p6647
sV[7,5]
p6648
V15734.943310657596
p6649
sV[20,4]
p6650
NsV[23,0]
p6651
V20819.52380952381
p6652
sV[14,0]
p6653
V20221.179138321997
p6654
sV[1,3]
p6655
V20477.551020408166
p6656
sV[7,2]
p6657
NsV[11,7]
p6658
V26675.102040816328
p6659
sV[12,1]
p6660
V25277.460317460318
p6661
sV[27,6]
p6662
V19001.24716553288
p6663
sV[1,4]
p6664
V20705.60090702948
p6665
sV[16,1]
p6666
V17954.98866213152
p6667
sV[4,5]
p6668
NsV[6,6]
p6669
V10534.739229024943
p6670
sV[2,7]
p6671
NsV[15,7]
p6672
V21964.739229024945
p6673
sV[29,7]
p6674
V20337.02947845805
p6675
sV[10,0]
p6676
V23220.680272108842
p6677
sV[26,2]
p6678
V21973.40136054422
p6679
sV[22,2]
p6680
V22848.480725623584
p6681
sV[5,6]
p6682
V35007.573696145126
p6683
sV[15,0]
p6684
V28567.14285714286
p6685
sV[18,2]
p6686
V21878.39002267574
p6687
sV[17,4]
p6688
V24472.403628117914
p6689
sV[8,1]
p6690
V17180.657596371882
p6691
sV[28,2]
p6692
NsV[5,1]
p6693
V21987.256235827666
p6694
sV[21,1]
p6695
V27357.21088435374
p6696
sV[0,5]
p6697
NsV[22,6]
p6698
V22511.72335600907
p6699
sV[14,3]
p6700
V22173.310657596372
p6701
sV[19,0]
p6702
V29281.133786848073
p6703
sV[25,2]
p6704
V27631.950113378687
p6705
sV[20,1]
p6706
NsV[23,6]
p6707
V23375.17006802721
p6708
sV[27,4]
p6709
V20470.090702947848
p6710
sV[28,6]
p6711
NsV[22,5]
p6712
V24130.385487528343
p6713
sV[3,3]
p6714
V53817.75510204082
p6715
sV[1,7]
p6716
V22965.056689342404
p6717
sV[4,6]
p6718
NsV[2,4]
p6719
V21488.43537414966
p6720
sV[23,4]
p6721
V21340.680272108846
p6722
sV[10,3]
p6723
V36532.31292517007
p6724
sV[6,3]
p6725
V11053.990929705215
p6726
sV[17,0]
p6727
V31326.05442176871
p6728
sV[12,4]
p6729
V31373.832199546483
p6730
sV[22,1]
p6731
V26049.659863945577
p6732
sV[9,7]
p6733
NsV[24,6]
p6734
NsV[11,1]
p6735
V24690.997732426305
p6736
sV[13,2]
p6737
V26714.240362811794
p6738
sV[8,6]
p6739
V24590.340136054423
p6740
sV[15,1]
p6741
NsV[0,2]
p6742
NsV[9,6]
p6743
NsV[16,4]
p6744
V23173.378684807256
p6745
sV[5,0]
p6746
NsV[18,1]
p6747
V51641.9954648526
p6748
sV[21,0]
p6749
NsV[25,1]
p6750
V33010.34013605442
p6751
sV[20,6]
p6752
NsV[19,1]
p6753
NsV[11,6]
p6754
V21283.061224489797
p6755
sV[24,1]
p6756
V18352.94784580499
p6757
sV[3,2]
p6758
V23389.886621315192
p6759
sV[14,2]
p6760
V34034.14965986395
p6761
sV[16,0]
p6762
V18499.501133786845
p6763
sV[4,7]
p6764
V22593.061224489797
p6765
sV[28,0]
p6766
NsV[6,4]
p6767
V14978.14058956916
p6768
sV[7,0]
p6769
V22872.83446712018
p6770
sV[23,7]
p6771
V17391.700680272108
p6772
sV[10,2]
p6773
V17883.90022675737
p6774
sV[16,7]
p6775
V20588.798185941043
p6776
sV[1,6]
p6777
V27764.53514739229
p6778
sV[10,6]
p6779
V34052.244897959186
p6780
sV[12,7]
p6781
NsV[26,0]
p6782
V31205.827664399094
p6783
sV[29,1]
p6784
V34698.77551020408
p6785
sV[2,5]
p6786
V17111.11111111111
p6787
sV[29,2]
p6788
V16466.485260770976
p6789
sV[26,4]
p6790
V23738.049886621317
p6791
sV[17,7]
p6792
NsV[13,3]
p6793
Nsatp6794
ba(lp6795
g14
(g15
(dp6796
g17
g18
(g19
(I0
tp6797
g21
tp6798
Rp6799
(I1
(I17
tp6800
g28
I00
S'\x00\x00\x00\x00\x00\x00\x00\x00\x01\x00\x00\x00\x00\x00\x00\x00\n\x00\x00\x00\x00\x00\x00\x00\x0b\x00\x00\x00\x00\x00\x00\x00\x0c\x00\x00\x00\x00\x00\x00\x00\r\x00\x00\x00\x00\x00\x00\x00\x0e\x00\x00\x00\x00\x00\x00\x00\x0f\x00\x00\x00\x00\x00\x00\x00\x10\x00\x00\x00\x00\x00\x00\x00\x02\x00\x00\x00\x00\x00\x00\x00\x03\x00\x00\x00\x00\x00\x00\x00\x04\x00\x00\x00\x00\x00\x00\x00\x05\x00\x00\x00\x00\x00\x00\x00\x06\x00\x00\x00\x00\x00\x00\x00\x07\x00\x00\x00\x00\x00\x00\x00\x08\x00\x00\x00\x00\x00\x00\x00\t\x00\x00\x00\x00\x00\x00\x00'
p6801
tp6802
bsg8
Nstp6803
Rp6804
a(dp6805
S'0.14.1'
p6806
(dp6807
S'axes'
p6808
g13
sS'blocks'
p6809
(lp6810
(dp6811
S'mgr_locs'
p6812
c__builtin__
slice
p6813
(I0
I17
I1
tp6814
Rp6815
sS'values'
p6816
g38
sasstp6817
bsS'_typ'
p6818
S'series'
p6819
sg8
Nsb.