(lp0
VFOLLOWING IS DATA FOR debugMZNC0G:debugHH9F77
p1
a((lp2
(lp3
S'Narcissus'
p4
aS'Arizona'
p5
aS'dress'
p6
aS'Montana'
p7
aS'Utah'
p8
aS'toaster'
p9
aS'nice'
p10
aS'girdle'
p11
aS'underwear'
p12
aS'Daisy'
p13
aS'sunflower'
p14
aS'download'
p15
aS'Maine'
p16
aa(lp17
(lp18
S'0.849048554897'
p19
aS'0.889870762825'
p20
aS'0.768749892712'
p21
aS'0.891385734081'
p22
aS'0.875405490398'
p23
aS'0.811597287655'
p24
aS'0.909090936184'
p25
aS'0.848529279232'
p26
aS'0.804279625416'
p27
aS'0.809303343296'
p28
aS'0.801754236221'
p29
aS'0.521171867847'
p30
aS'0.899440169334'
p31
aatp32
a((lp33
(lp34
S'giraffe'
p35
aS'horse'
p36
aS'cow'
p37
aS'Mouse'
p38
aS'window'
p39
aS'refrigerator'
p40
aS'glass'
p41
aS'spatula'
p42
aS'call'
p43
aS'corridor'
p44
aS'tangelo'
p45
aS'strawberry'
p46
aS'guava'
p47
aS'kiwi'
p48
aa(lp49
(lp50
S'0.765662014484'
p51
aS'0.813870966434'
p52
aS'0.810189843178'
p53
aS'0.7642968297'
p54
aS'0.810104250908'
p55
aS'0.847153902054'
p56
aS'0.788434028625'
p57
aS'0.857377529144'
p58
aS'0.815360069275'
p59
aS'0.849401772022'
p60
aS'0.854677557945'
p61
aS'0.785321056843'
p62
aS'0.802003622055'
p63
aS'0.850266575813'
p64
aatp65
a((lp66
(lp67
S'Berlin'
p68
aS'Reno'
p69
aS'I'
p70
aS'thought'
p71
aS'you'
p72
aS'were'
p73
aS'also'
p74
aS'cities'
p75
aS'Hornet'
p76
aS'Hornet'
p77
aS'mosquito'
p78
aS'millipede'
p79
aS'and'
p80
aS'mantis'
p81
aS'bra'
p82
aS'sweater'
p83
aS'trousers'
p84
aS'gloves'
p85
aS'Sycamore'
p86
aS'sheep'
p87
aa(lp88
(lp89
S'0.847521364689'
p90
aS'0.835472166538'
p91
aS'0.820234537125'
p92
aS'0.820234537125'
p93
aS'0.820234537125'
p94
aS'0.820234537125'
p95
aS'0.820234537125'
p96
aS'0.820234537125'
p97
aS'0.7903881073'
p98
aS'0.7903881073'
p99
aS'0.7903881073'
p100
aS'0.792592585087'
p101
aS'0.792592585087'
p102
aS'0.792592585087'
p103
aS'0.843339264393'
p104
aS'0.857475340366'
p105
aS'0.844499111176'
p106
aS'0.842200100422'
p107
aS'0.800746202469'
p108
aS'0.782299101353'
p109
aatp110
a((lp111
(lp112
S'okra'
p113
aS'rutabaga'
p114
aS'Ginger'
p115
aS'wasp'
p116
aS'chrysalis'
p117
aS'termite'
p118
aS'Ohio'
p119
aS'Texas'
p120
aS'Pennsylvania'
p121
aS'llama'
p122
aS'rhinoceros'
p123
aS'Fox'
p124
aa(lp125
(lp126
S'0.826115906239'
p127
aS'0.80788475275'
p128
aS'0.811470031738'
p129
aS'0.846572756767'
p130
aS'0.826334059238'
p131
aS'0.810227274895'
p132
aS'0.90669208765'
p133
aS'0.888421952724'
p134
aS'0.886860370636'
p135
aS'0.811680793762'
p136
aS'0.827000141144'
p137
aS'0.787452101707'
p138
aatp139
a((lp140
(lp141
S'colander'
p142
aS'cup'
p143
aS'who'
p144
aS'Evergreen'
p145
aS'spruce'
p146
aS'robe'
p147
aS'shirt'
p148
aS'ukulele'
p149
aS'banjo'
p150
aS'harmonica'
p151
aS'marimba'
p152
aS'love'
p153
aS'you'
p154
ag70
aS'already'
p155
aS'say'
p156
aS'harmonica'
p157
aa(lp158
(lp159
S'0.926182091236'
p160
aS'0.854287803173'
p161
aS'0.915644526482'
p162
aS'0.812689781189'
p163
aS'0.792406260967'
p164
aS'0.846484780312'
p165
aS'0.814012765884'
p166
aS'0.820118308067'
p167
aS'0.800011396408'
p168
aS'0.849635660648'
p169
aS'0.761296987534'
p170
aS'0.583318412304'
p171
aS'0.583318412304'
p172
aS'0.718036711216'
p173
aS'0.718036711216'
p174
aS'0.718036711216'
p175
aS'0.718036711216'
p176
aatp177
a((lp178
(lp179
S'Vermont'
p180
aS'Hawaii'
p181
aS'Wisconsin'
p182
aS'Ohio'
p183
aS'Tokyo'
p184
aS'Vancouver'
p185
aS'Philadelphia'
p186
aS'Jerusalem'
p187
aS'kumquat'
p188
aS'mango'
p189
aS'ruler'
p190
aS'glue'
p191
aa(lp192
(lp193
S'0.886677980423'
p194
aS'0.898150265217'
p195
aS'0.897291064262'
p196
aS'0.906692266464'
p197
aS'0.847578346729'
p198
aS'0.840729832649'
p199
aS'0.835473656654'
p200
aS'0.850953042507'
p201
aS'0.850477695465'
p202
aS'0.987629055977'
p203
aS'0.987629055977'
p204
aS'0.956866621971'
p205
aatp206
a((lp207
(lp208
S'heart'
p209
aS'ear'
p210
aS'base'
p211
aS'knuckle'
p212
aS'Alcove'
p213
aS'gazebo'
p214
aS'kitchen'
p215
aS'tulip'
p216
aS'petunia'
p217
aS'dog'
p218
aS'donkey'
p219
aS'hippopotamus'
p220
aS'tiger'
p221
aS'carnation'
p222
aS'Rose'
p223
aS'video'
p224
aa(lp225
(lp226
S'0.67434233427'
p227
aS'0.67434233427'
p228
aS'0.67434233427'
p229
aS'0.67434233427'
p230
aS'0.897310733795'
p231
aS'0.897310733795'
p232
aS'0.897310733795'
p233
aS'0.880385637283'
p234
aS'0.880385637283'
p235
aS'0.797823190689'
p236
aS'0.765837669373'
p237
aS'0.765837669373'
p238
aS'0.815017580986'
p239
aS'0.803795933723'
p240
aS'0.909090936184'
p241
aS'0.909090936184'
p242
aatp243
a((lp244
(lp245
S'Florida'
p246
aS'Kansas'
p247
aS'Iowa'
p248
aS'rib'
p249
aS'tooth'
p250
aS'tongue'
p251
aS'pancreas'
p252
aS'lemon'
p253
aS'Clementine'
p254
aS'pomegranate'
p255
aS'hair'
p256
aS'moose'
p257
aS'antelope'
p258
aa(lp259
(lp260
S'0.909767746925'
p261
aS'0.84796255827'
p262
aS'0.872701406479'
p263
aS'0.808352410793'
p264
aS'0.814419448376'
p265
aS'0.849859833717'
p266
aS'0.846202671528'
p267
aS'0.794231295586'
p268
aS'0.862660646439'
p269
aS'0.862660646439'
p270
aS'0.862660646439'
p271
aS'0.808256328106'
p272
aS'0.809909522533'
p273
aatp274
a((lp275
(lp276
S'word'
p277
aa(lp278
(lp279
F0.0
aatp280
a((lp281
(lp282
g277
aa(lp283
(lp284
F0.1
aatp285
a((lp286
(lp287
g277
aa(lp288
(lp289
F0.2
aatp290
a((lp291
(lp292
g277
aa(lp293
(lp294
F0.3
aatp295
a((lp296
(lp297
g277
aa(lp298
(lp299
F0.4
aatp300
a((lp301
(lp302
g277
aa(lp303
(lp304
F0.5
aatp305
a((lp306
(lp307
g277
aa(lp308
(lp309
F0.6
aatp310
a((lp311
(lp312
g277
aa(lp313
(lp314
F0.7
aatp315
aVFOLLOWING IS DATA FOR debugJKZ2FK:debug69AISL
p316
a((lp317
(lp318
S'zucchini'
p319
aS'squash'
p320
aS'Panther'
p321
aS'shoulder'
p322
aS'elbow'
p323
aS'aubergine'
p324
aS'Miami'
p325
aS'goat'
p326
aS'wolf'
p327
aS'Toronto'
p328
aS'sheep'
p329
aa(lp330
(lp331
S'0.848273277283'
p332
aS'0.848273277283'
p333
aS'0.848273277283'
p334
aS'0.848273277283'
p335
aS'0.848273277283'
p336
aS'0.848273277283'
p337
aS'0.848273277283'
p338
aS'0.848273277283'
p339
aS'0.848273277283'
p340
aS'0.847676157951'
p341
aS'0.858044087887'
p342
aatp343
a((lp344
(lp345
S'ukulele'
p346
aS'harmonica'
p347
aS'blender'
p348
aS'mixer'
p349
aS'Oak'
p350
aS'spruce'
p351
aS'Cottonwood'
p352
aS'belt'
p353
aS'shirt'
p354
aS'robe'
p355
aS'jumper'
p356
aS'harmonica'
p357
aS'marimba'
p358
aS'colander'
p359
aa(lp360
(lp361
S'0.8856767416'
p362
aS'0.8856767416'
p363
aS'0.81266450882'
p364
aS'0.849895894527'
p365
aS'0.785360574722'
p366
aS'0.791987717152'
p367
aS'0.79974770546'
p368
aS'0.780609607697'
p369
aS'0.812836289406'
p370
aS'0.844366431236'
p371
aS'0.764708220959'
p372
aS'0.849606275558'
p373
aS'0.76348733902'
p374
aS'0.812885463238'
p375
aatp376
a((lp377
(lp378
S'oven'
p379
aS'Broiler'
p380
aS'thermometer'
p381
aS'Dallas'
p382
aS'Montreal'
p383
aS'Paris'
p384
aS'Rome'
p385
aS'hip'
p386
aS'pelvis'
p387
aS'show'
p388
aS'stomach'
p389
aS'Piccolo'
p390
aS'trumpet'
p391
aa(lp392
(lp393
S'0.870693922043'
p394
aS'0.870693922043'
p395
aS'0.870693922043'
p396
aS'0.690651535988'
p397
aS'0.690651535988'
p398
aS'0.883254647255'
p399
aS'0.883254647255'
p400
aS'0.849322021008'
p401
aS'0.764237761497'
p402
aS'0.764237761497'
p403
aS'0.798343837261'
p404
aS'0.851383328438'
p405
aS'0.839147210121'
p406
aatp407
a((lp408
(lp409
S'triangle'
p410
aS'screws'
p411
aS'Hammer'
p412
aS'wedge'
p413
aS'Elm'
p414
aS'Pine'
p415
aS'Maple'
p416
aS'raspberry'
p417
aS'antelope'
p418
aS'saxophone'
p419
aS'violin'
p420
aS'cello'
p421
aS'Pig'
p422
aS'plum'
p423
aa(lp424
(lp425
S'0.847601532936'
p426
aS'0.847601532936'
p427
aS'0.791940689087'
p428
aS'0.791940689087'
p429
aS'0.784938216209'
p430
aS'0.800992786884'
p431
aS'0.800992786884'
p432
aS'0.800992786884'
p433
aS'0.678837060928'
p434
aS'0.918443441391'
p435
aS'0.918443441391'
p436
aS'0.918443441391'
p437
aS'0.790182828903'
p438
aS'0.79197794199'
p439
aatp440
a((lp441
(lp442
S'Switzerland'
p443
aS'France'
p444
aS'England'
p445
aS'Japan'
p446
aS'clarinet'
p447
aS'kazoo'
p448
aS'drum'
p449
aS'piano'
p450
aS'saw'
p451
aS'protractor'
p452
aS'bolts'
p453
aS'hammer'
p454
aS'ferret'
p455
aS'cot'
p456
aS'squirrel'
p457
aa(lp458
(lp459
S'0.912290096283'
p460
aS'0.912290096283'
p461
aS'0.879337191582'
p462
aS'0.879337191582'
p463
aS'0.831222116947'
p464
aS'0.850066900253'
p465
aS'0.807841539383'
p466
aS'0.822482466698'
p467
aS'0.757613539696'
p468
aS'0.757613539696'
p469
aS'0.85864931345'
p470
aS'0.851471602917'
p471
aS'0.630973219872'
p472
aS'0.630973219872'
p473
aS'0.780982255936'
p474
aatp475
a((lp476
(lp477
S'beetle'
p478
aS'chrysalis'
p479
aS'rabbit'
p480
aS'rhinoceros'
p481
aS'Fox'
p482
aS'Alaska'
p483
aS'Pennsylvania'
p484
aS'Ohio'
p485
aS'Texas'
p486
aS'grasshopper'
p487
aa(lp488
(lp489
S'0.85046339035'
p490
aS'0.82633382082'
p491
aS'0.876616835594'
p492
aS'0.876616835594'
p493
aS'0.785648047924'
p494
aS'0.909611046314'
p495
aS'0.909611046314'
p496
aS'0.909611046314'
p497
aS'0.888422548771'
p498
aS'0.968699276447'
p499
aatp500
a((lp501
(lp502
S'Ash'
p503
aS'eucalyptus'
p504
aS'Willow'
p505
aS'Poplar'
p506
aS'accordion'
p507
aS'xylophone'
p508
aS'web'
p509
aS'finger'
p510
aS'hand'
p511
aS'ankle'
p512
aS'Monarch'
p513
aS'worm'
p514
aS'larva'
p515
aa(lp516
(lp517
S'0.934446692467'
p518
aS'0.934446692467'
p519
aS'0.789686858654'
p520
aS'0.7997148633'
p521
aS'0.847877085209'
p522
aS'0.814956068993'
p523
aS'0.522953212261'
p524
aS'0.813422262669'
p525
aS'0.802875936031'
p526
aS'0.768756568432'
p527
aS'0.707802414894'
p528
aS'0.707802414894'
p529
aS'0.775578677654'
p530
aatp531
a((lp532
(lp533
S'dog'
p534
aS'donkey'
p535
aS'hippopotamus'
p536
aS'kitchen'
p537
aS'gazebo'
p538
aS'Barn'
p539
aS'Alcove'
p540
aS'ear'
p541
aS'knuckle'
p542
aS'face'
p543
aS'heart'
p544
aS'petunia'
p545
aS'Rose'
p546
aS'carnation'
p547
aS'tulip'
p548
aa(lp549
(lp550
S'0.810637652874'
p551
aS'0.811315238476'
p552
aS'0.847549259663'
p553
aS'0.81211066246'
p554
aS'0.987629055977'
p555
aS'0.810548961163'
p556
aS'0.81251513958'
p557
aS'0.81548088789'
p558
aS'0.786175847054'
p559
aS'0.65436154604'
p560
aS'0.815437793732'
p561
aS'0.850463032722'
p562
aS'0.814239382744'
p563
aS'0.807532072067'
p564
aS'0.803117990494'
p565
aatp566
a((lp567
(lp568
g277
aa(lp569
(lp570
F0.0
aatp571
a((lp572
(lp573
g277
aa(lp574
(lp575
F0.1
aatp576
a((lp577
(lp578
g277
aa(lp579
(lp580
F0.2
aatp581
a((lp582
(lp583
g277
aa(lp584
(lp585
F0.3
aatp586
a((lp587
(lp588
g277
aa(lp589
(lp590
F0.4
aatp591
a((lp592
(lp593
g277
aa(lp594
(lp595
F0.5
aatp596
a((lp597
(lp598
g277
aa(lp599
(lp600
F0.6
aatp601
a((lp602
(lp603
g277
aa(lp604
(lp605
F0.7
aatp606
aVFOLLOWING IS DATA FOR debugXDG5RF:debugHHZWWB
p607
a((lp608
(lp609
S'Paris'
p610
aS'Dallas'
p611
aS'broiler'
p612
aS'hip'
p613
aS'trumpet'
p614
aS'pelvis'
p615
aS'stomach'
p616
aS'Piccolo'
p617
aa(lp618
(lp619
S'0.854340195656'
p620
aS'0.777016341686'
p621
aS'0.811010658741'
p622
aS'0.729342341423'
p623
aS'0.839157402515'
p624
aS'0.937380492687'
p625
aS'0.796983540058'
p626
aS'0.851383566856'
p627
aatp628
a((lp629
(lp630
S'cow'
p631
aS'giraffe'
p632
aS'horse'
p633
aS'strawberry'
p634
aS'kiwi'
p635
aS'spatula'
p636
aS'door'
p637
aS'corridor'
p638
aS'Hall'
p639
aS'tambourine'
p640
aS'guava'
p641
aS'spatula'
p642
aa(lp643
(lp644
S'0.772245466709'
p645
aS'0.772245466709'
p646
aS'0.813746571541'
p647
aS'0.785320699215'
p648
aS'0.850157558918'
p649
aS'0.857387185097'
p650
aS'0.810467660427'
p651
aS'0.850287616253'
p652
aS'0.766741394997'
p653
aS'0.851763606071'
p654
aS'0.80174267292'
p655
aS'0.857386469841'
p656
aatp657
a((lp658
(lp659
S'colander'
p660
aS'spruce'
p661
aS'shirt'
p662
aS'Oak'
p663
aS'blender'
p664
aS'harmonica'
p665
aS'banjo'
p666
aS'robe'
p667
aS'jumper'
p668
aS'Cottonwood'
p669
aS'blender'
p670
aS'harmonica'
p671
aS'spruce'
p672
aa(lp673
(lp674
S'0.813594639301'
p675
aS'0.791872799397'
p676
aS'0.812892615795'
p677
aS'0.785360574722'
p678
aS'0.814035236835'
p679
aS'0.812111735344'
p680
aS'0.800022542477'
p681
aS'0.844382107258'
p682
aS'0.764717161655'
p683
aS'0.799747824669'
p684
aS'0.848959922791'
p685
aS'0.812111675739'
p686
aS'0.846745312214'
p687
aatp688
a((lp689
(lp690
S'wasp'
p691
aS'Chrysalis'
p692
aS'Ohio'
p693
aS'Alaska'
p694
aS'Texas'
p695
aS'Pennsylvania'
p696
aS'rhinoceros'
p697
aS'beetle'
p698
aS'pumpkin'
p699
aS'termite'
p700
aa(lp701
(lp702
S'0.843927621841'
p703
aS'0.839232325554'
p704
aS'0.839232325554'
p705
aS'0.905398309231'
p706
aS'0.817343175411'
p707
aS'0.817343175411'
p708
aS'0.826999545097'
p709
aS'0.850463569164'
p710
aS'0.8009339571'
p711
aS'0.810270130634'
p712
aatp713
a((lp714
(lp715
S'Ethiopia'
p716
aS'Poland'
p717
aS'Italy'
p718
aS'viola'
p719
aS'Pig'
p720
aa(lp721
(lp722
S'0.911174476147'
p723
aS'0.819864809513'
p724
aS'0.911295056343'
p725
aS'0.785611212254'
p726
aS'0.792992591858'
p727
aatp728
a((lp729
(lp730
S'Tokyo'
p731
aS'glue'
p732
aS'ruler'
p733
aS'Vermont'
p734
aS'nuts'
p735
aS'banana'
p736
aS'mango'
p737
aS'nectarine'
p738
aS'Wisconsin'
p739
aS'Philadelphia'
p740
aS'California'
p741
aS'kumquat'
p742
aa(lp743
(lp744
S'0.847617685795'
p745
aS'0.811037659645'
p746
aS'0.849254190922'
p747
aS'0.88668268919'
p748
aS'0.850651860237'
p749
aS'0.809779167175'
p750
aS'0.79044598341'
p751
aS'0.84718221426'
p752
aS'0.897290170193'
p753
aS'0.835473656654'
p754
aS'0.87624078989'
p755
aS'0.850476443768'
p756
aatp757
a((lp758
(lp759
S'Sycamore'
p760
aS'teak'
p761
aS'Reno'
p762
aS'millipede'
p763
aS'mosquito'
p764
aS'sweater'
p765
aS'bra'
p766
aS'gloves'
p767
aS'Chicago'
p768
aa(lp769
(lp770
S'0.800711929798'
p771
aS'0.793885707855'
p772
aS'0.83547180891'
p773
aS'0.832602679729'
p774
aS'0.80525547266'
p775
aS'0.857549786568'
p776
aS'0.838873267174'
p777
aS'0.845882296562'
p778
aS'0.850348770618'
p779
aatp780
a((lp781
(lp782
S'hand'
p783
aS'flower'
p784
aS'Willow'
p785
aS'ankle'
p786
aS'Bongo'
p787
aS'larva'
p788
aS'Ash'
p789
aS'finger'
p790
aS'guitar'
p791
aS'open'
p792
aS'up'
p793
aa(lp794
(lp795
S'0.851587355137'
p796
aS'0.851587355137'
p797
aS'0.789686918259'
p798
aS'0.769737541676'
p799
aS'0.851065576077'
p800
aS'0.77557438612'
p801
aS'0.797816991806'
p802
aS'0.813422381878'
p803
aS'0.803585112095'
p804
aS'0.804365038872'
p805
aS'0.804365038872'
p806
aatp807
a((lp808
(lp809
g277
aa(lp810
(lp811
F0.0
aatp812
a((lp813
(lp814
g277
aa(lp815
(lp816
F0.1
aatp817
a((lp818
(lp819
g277
aa(lp820
(lp821
F0.2
aatp822
a((lp823
(lp824
g277
aa(lp825
(lp826
F0.3
aatp827
a((lp828
(lp829
g277
aa(lp830
(lp831
F0.4
aatp832
a((lp833
(lp834
g277
aa(lp835
(lp836
F0.5
aatp837
a((lp838
(lp839
g277
aa(lp840
(lp841
F0.6
aatp842
a((lp843
(lp844
g277
aa(lp845
(lp846
F0.7
aatp847
aVFOLLOWING IS DATA FOR debugYP8A2G:debug2FTXIJ
p848
a((lp849
(lp850
S'Hickory'
p851
aS'saxophone'
p852
aS'wire'
p853
aS'screws'
p854
aS'Plum'
p855
aS'raspberry'
p856
aS'saxophone'
p857
aS'call'
p858
aS'you'
p859
aS'Pine'
p860
aS'raspberry'
p861
aS'Hickory'
p862
aS'screws'
p863
aS'maple'
p864
aS'saxophone'
p865
aS'Elm'
p866
aa(lp867
(lp868
S'0.889406204224'
p869
aS'0.889406204224'
p870
aS'0.889406204224'
p871
aS'0.889406204224'
p872
aS'0.889406204224'
p873
aS'0.889406204224'
p874
aS'0.846665382385'
p875
aS'0.720580458641'
p876
aS'0.720580458641'
p877
aS'0.630733847618'
p878
aS'0.630733847618'
p879
aS'0.630733847618'
p880
aS'0.630733847618'
p881
aS'0.630733847618'
p882
aS'0.808171749115'
p883
aS'0.808171749115'
p884
aatp885
a((lp886
(lp887
S'wasp'
p888
aS'rhinoceros'
p889
aS'beetle'
p890
aS'Fox'
p891
aS'Ohio'
p892
aS'Pennsylvania'
p893
aS'Alaska'
p894
aS'Texas'
p895
aS'okra'
p896
aS'honey'
p897
aS'rutabaga'
p898
aa(lp899
(lp900
S'0.901668965816'
p901
aS'0.901668965816'
p902
aS'0.850463449955'
p903
aS'0.81064414978'
p904
aS'0.81064414978'
p905
aS'0.81064414978'
p906
aS'0.81064414978'
p907
aS'0.81064414978'
p908
aS'0.81064414978'
p909
aS'0.88794618845'
p910
aS'0.807880878448'
p911
aatp912
a((lp913
(lp914
S'fork'
p915
aS'knife'
p916
aS'Skillet'
p917
aS'toaster'
p918
aS'pants'
p919
aS'underwear'
p920
aS'dress'
p921
aS'main'
p922
aS'Alabama'
p923
aS'Arizona'
p924
aS'fork'
p925
aS'knife'
p926
aS'Lily'
p927
aS'Daisy'
p928
aS'tablecloth'
p929
aa(lp930
(lp931
S'0.865505456924'
p932
aS'0.865505456924'
p933
aS'0.865505456924'
p934
aS'0.865505456924'
p935
aS'0.865505456924'
p936
aS'0.865505456924'
p937
aS'0.865505456924'
p938
aS'0.865505456924'
p939
aS'0.865505456924'
p940
aS'0.889870762825'
p941
aS'0.955266833305'
p942
aS'0.955266833305'
p943
aS'0.765178442001'
p944
aS'0.765178442001'
p945
aS'0.73608905077'
p946
aatp947
a((lp948
(lp949
S'pear'
p950
aS'monkey'
p951
aS'raccoon'
p952
aS'dog'
p953
aS'tongue'
p954
aS'ribs'
p955
aS'Kansas'
p956
aS'Florida'
p957
aS"Lennon's"
p958
aS'pancreas'
p959
aS'Iowa'
p960
aS'lemons'
p961
aa(lp962
(lp963
S'0.790956735611'
p964
aS'0.790956735611'
p965
aS'0.790956735611'
p966
aS'0.961630761623'
p967
aS'0.949730694294'
p968
aS'0.949730694294'
p969
aS'0.949730694294'
p970
aS'0.949730694294'
p971
aS'0.949730694294'
p972
aS'0.949730694294'
p973
aS'0.949730694294'
p974
aS'0.786445260048'
p975
aatp976
a((lp977
(lp978
S'garlic'
p979
aS'blouse'
p980
aS'suit'
p981
aS'Iran'
p982
aS'furnace'
p983
aS'stove'
p984
aS'jacket'
p985
aS'spinach'
p986
aS'artichoke'
p987
aS'Egypt'
p988
aS'garlic'
p989
aS'dress'
p990
aS'suit'
p991
aS'blouse'
p992
aa(lp993
(lp994
S'0.933630406857'
p995
aS'0.933630406857'
p996
aS'0.933630406857'
p997
aS'0.933630406857'
p998
aS'0.933630406857'
p999
aS'0.933630406857'
p1000
aS'0.933630406857'
p1001
aS'0.933630406857'
p1002
aS'0.933630406857'
p1003
aS'0.865638196468'
p1004
aS'0.804415225983'
p1005
aS'0.919956684113'
p1006
aS'0.919956684113'
p1007
aS'0.919956684113'
p1008
aatp1009
a((lp1010
(lp1011
S'door'
p1012
aS'guava'
p1013
aS'kiwi'
p1014
aS'pot'
p1015
aS'spatula'
p1016
aS'Tango'
p1017
aS'strawberry'
p1018
aS'horse'
p1019
aS'window'
p1020
aS'door'
p1021
aS'giraffe'
p1022
aa(lp1023
(lp1024
S'0.643724858761'
p1025
aS'0.643724858761'
p1026
aS'0.643724858761'
p1027
aS'0.643724858761'
p1028
aS'0.770399093628'
p1029
aS'0.770399093628'
p1030
aS'0.770399093628'
p1031
aS'0.813746392727'
p1032
aS'0.810097038746'
p1033
aS'0.809843242168'
p1034
aS'0.798837721348'
p1035
aatp1036
a((lp1037
(lp1038
S'California'
p1039
aS'Vancover'
p1040
aS'Vermont'
p1041
aS'Jerusalem'
p1042
aS'Hawaii'
p1043
aS'Tokyo'
p1044
aS'kumquat'
p1045
aS'mango'
p1046
aa(lp1047
(lp1048
S'0.72170317173'
p1049
aS'0.72170317173'
p1050
aS'0.72170317173'
p1051
aS'0.72170317173'
p1052
aS'0.896888434887'
p1053
aS'0.847678005695'
p1054
aS'0.712516248226'
p1055
aS'0.712516248226'
p1056
aatp1057
a((lp1058
(lp1059
S'aubergine'
p1060
aS'Stockholm'
p1061
aS'elbow'
p1062
aS'shoulder'
p1063
aS'kidney'
p1064
aS'sheep'
p1065
aS'goat'
p1066
aS'wolf'
p1067
aS'Olive'
p1068
aS'zucchini'
p1069
aS'squash'
p1070
aa(lp1071
(lp1072
S'0.993814527988'
p1073
aS'0.993814527988'
p1074
aS'0.827083647251'
p1075
aS'0.827083647251'
p1076
aS'0.827083647251'
p1077
aS'0.820967018604'
p1078
aS'0.820967018604'
p1079
aS'0.820967018604'
p1080
aS'0.807629466057'
p1081
aS'0.807629466057'
p1082
aS'0.845378816128'
p1083
aatp1084
a((lp1085
(lp1086
g277
aa(lp1087
(lp1088
F0.0
aatp1089
a((lp1090
(lp1091
g277
aa(lp1092
(lp1093
F0.1
aatp1094
a((lp1095
(lp1096
g277
aa(lp1097
(lp1098
F0.2
aatp1099
a((lp1100
(lp1101
g277
aa(lp1102
(lp1103
F0.3
aatp1104
a((lp1105
(lp1106
g277
aa(lp1107
(lp1108
F0.4
aatp1109
a((lp1110
(lp1111
g277
aa(lp1112
(lp1113
F0.5
aatp1114
a((lp1115
(lp1116
g277
aa(lp1117
(lp1118
F0.6
aatp1119
a((lp1120
(lp1121
g277
aa(lp1122
(lp1123
F0.7
aatp1124
aVFOLLOWING IS DATA FOR debugL2YZ74:debugXLYC15
p1125
a((lp1126
(lp1127
S'strawberry'
p1128
aS'Mouse'
p1129
aS'tangelo'
p1130
aS'kiwi'
p1131
aS'corridor'
p1132
aS'Hall'
p1133
aS'glass'
p1134
aS'pot'
p1135
aS'cow'
p1136
aS'all'
p1137
aS'window'
p1138
aS'spatula'
p1139
aS'horse'
p1140
aa(lp1141
(lp1142
S'0.641238749027'
p1143
aS'0.641238749027'
p1144
aS'0.641238749027'
p1145
aS'0.641238749027'
p1146
aS'0.641238749027'
p1147
aS'0.775602281094'
p1148
aS'0.790244221687'
p1149
aS'0.804075181484'
p1150
aS'0.772529244423'
p1151
aS'0.5879945755'
p1152
aS'0.810096621513'
p1153
aS'0.857388556004'
p1154
aS'0.814675152302'
p1155
aatp1156
a((lp1157
(lp1158
S'Hickory'
p1159
aS'honeydew'
p1160
aS'Pine'
p1161
aS'cello'
p1162
aS'violin'
p1163
aS'Elm'
p1164
aS'screw'
p1165
aS'wire'
p1166
aS'saxophone'
p1167
aS'hammer'
p1168
aS'plum'
p1169
aS'wedge'
p1170
aS'violin'
p1171
aa(lp1172
(lp1173
S'0.786165893078'
p1174
aS'0.774530291557'
p1175
aS'0.851430296898'
p1176
aS'0.849607825279'
p1177
aS'0.854209899902'
p1178
aS'0.784938216209'
p1179
aS'0.987629055977'
p1180
aS'0.812375545502'
p1181
aS'0.846855640411'
p1182
aS'0.775232791901'
p1183
aS'0.792069613934'
p1184
aS'0.806926488876'
p1185
aS'0.814531803131'
p1186
aatp1187
a((lp1188
(lp1189
S'giraffe'
p1190
aS'rhinoceros'
p1191
aS'pumpkin'
p1192
aS'rutabaga'
p1193
aS'termite'
p1194
aS'Texas'
p1195
aS'Alaska'
p1196
aS'Pennsylvania'
p1197
aS'Ohio'
p1198
aS'Fox'
p1199
aS'rabbit'
p1200
aS'beetle'
p1201
aS'wasp'
p1202
aS'chrysalis'
p1203
aS'termite'
p1204
aa(lp1205
(lp1206
S'0.843105733395'
p1207
aS'0.827000379562'
p1208
aS'0.800892353058'
p1209
aS'0.807884931564'
p1210
aS'0.810269773006'
p1211
aS'0.88842266798'
p1212
aS'0.905398488045'
p1213
aS'0.886858165264'
p1214
aS'0.906692445278'
p1215
aS'0.786856710911'
p1216
aS'0.766702950001'
p1217
aS'0.850463569164'
p1218
aS'0.846579670906'
p1219
aS'0.826334059238'
p1220
aS'0.810270011425'
p1221
aatp1222
a((lp1223
(lp1224
S'fork'
p1225
aS'knife'
p1226
aS'Skillet'
p1227
aS'Arizona'
p1228
aS'Narcissus'
p1229
aS'Utah'
p1230
aS'Montana'
p1231
aS'Maine'
p1232
aS'girdle'
p1233
aS'pants'
p1234
aS'dress'
p1235
aS'sunflower'
p1236
aS'Lily'
p1237
aS'underwear'
p1238
aS'Daisy'
p1239
aS'Maine'
p1240
aa(lp1241
(lp1242
S'0.951662302017'
p1243
aS'0.951662302017'
p1244
aS'0.836571633816'
p1245
aS'0.836571633816'
p1246
aS'0.848849952221'
p1247
aS'0.875405490398'
p1248
aS'0.891385436058'
p1249
aS'0.912649095058'
p1250
aS'0.84852963686'
p1251
aS'0.850163042545'
p1252
aS'0.768965244293'
p1253
aS'0.801754057407'
p1254
aS'0.807418882847'
p1255
aS'0.804283082485'
p1256
aS'0.808414041996'
p1257
aS'0.898906290531'
p1258
aatp1259
a((lp1260
(lp1261
S'banana'
p1262
aS'mango'
p1263
aS'nectarine'
p1264
aS'nuts'
p1265
aS'Philadelphia'
p1266
aS'California'
p1267
aS'Vermont'
p1268
aS'Tokyo'
p1269
aS'glue'
p1270
aS'washer'
p1271
aS'ruler'
p1272
aS'Hawaii'
p1273
aS'Oregon'
p1274
aS'kumquat'
p1275
aa(lp1276
(lp1277
S'0.80977922678'
p1278
aS'0.790446817875'
p1279
aS'0.847185432911'
p1280
aS'0.84705811739'
p1281
aS'0.835472762585'
p1282
aS'0.87624078989'
p1283
aS'0.886681973934'
p1284
aS'0.847678005695'
p1285
aS'0.778659760952'
p1286
aS'0.81045717001'
p1287
aS'0.849277317524'
p1288
aS'0.897074699402'
p1289
aS'0.979770302773'
p1290
aS'0.850474178791'
p1291
aatp1292
a((lp1293
(lp1294
S'wolf'
p1295
aS'shoulder'
p1296
aS'Stockholm'
p1297
aS'zucchini'
p1298
aS'squash'
p1299
aS'Olive'
p1300
aS'Panther'
p1301
aS'sheep'
p1302
aS'goat'
p1303
aS'aubergine'
p1304
aS'Miami'
p1305
aS'Stockholm'
p1306
aS'Toronto'
p1307
aS'Bombay'
p1308
aS'elbow'
p1309
aS'foot'
p1310
aa(lp1311
(lp1312
S'0.784893333912'
p1313
aS'0.813230991364'
p1314
aS'0.835736632347'
p1315
aS'0.794059216976'
p1316
aS'0.845379829407'
p1317
aS'0.698809742928'
p1318
aS'0.783341228962'
p1319
aS'0.856741666794'
p1320
aS'0.812492072582'
p1321
aS'0.962921261787'
p1322
aS'0.858708739281'
p1323
aS'0.836245894432'
p1324
aS'0.847678482533'
p1325
aS'0.793354690075'
p1326
aS'0.846184313297'
p1327
aS'0.803587675095'
p1328
aatp1329
a((lp1330
(lp1331
S'Alcove'
p1332
aS'dog'
p1333
aS'donkey'
p1334
aS'heart'
p1335
aS'face'
p1336
aS'knuckle'
p1337
aS'petunia'
p1338
aS'Rose'
p1339
aS'carnation'
p1340
aS'tulip'
p1341
aS'hippopotamus'
p1342
aS'kitchen'
p1343
aS'Barn'
p1344
aS'donkey'
p1345
aS'giraffe'
p1346
aS'heart'
p1347
aa(lp1348
(lp1349
S'0.811649441719'
p1350
aS'0.80328565836'
p1351
aS'0.810310542583'
p1352
aS'0.815438270569'
p1353
aS'0.544884383678'
p1354
aS'0.786313414574'
p1355
aS'0.850462973118'
p1356
aS'0.814216315746'
p1357
aS'0.807532310486'
p1358
aS'0.803099870682'
p1359
aS'0.847549974918'
p1360
aS'0.81211066246'
p1361
aS'0.845237135887'
p1362
aS'0.799979805946'
p1363
aS'0.843104422092'
p1364
aS'0.806495428085'
p1365
aatp1366
a((lp1367
(lp1368
S'worm'
p1369
aS'accordion'
p1370
aS'scorpion'
p1371
aS'larva'
p1372
aS'monarch'
p1373
aS'hand'
p1374
aS'ankle'
p1375
aS'lip'
p1376
aS'Poplar'
p1377
aS'Willow'
p1378
aS'eucalyptus'
p1379
aS'guitar'
p1380
aS'xylophone'
p1381
aS'elbow'
p1382
aa(lp1383
(lp1384
S'0.849097073078'
p1385
aS'0.847877800465'
p1386
aS'0.828598916531'
p1387
aS'0.775576114655'
p1388
aS'0.786911547184'
p1389
aS'0.806641042233'
p1390
aS'0.769912958145'
p1391
aS'0.794411897659'
p1392
aS'0.800484776497'
p1393
aS'0.789686858654'
p1394
aS'0.812003970146'
p1395
aS'0.804303646088'
p1396
aS'0.81495565176'
p1397
aS'0.846184670925'
p1398
aatp1399
a((lp1400
(lp1401
g277
aa(lp1402
(lp1403
F0.0
aatp1404
a((lp1405
(lp1406
g277
aa(lp1407
(lp1408
F0.1
aatp1409
a((lp1410
(lp1411
g277
aa(lp1412
(lp1413
F0.2
aatp1414
a((lp1415
(lp1416
g277
aa(lp1417
(lp1418
F0.3
aatp1419
a((lp1420
(lp1421
g277
aa(lp1422
(lp1423
F0.4
aatp1424
a((lp1425
(lp1426
g277
aa(lp1427
(lp1428
F0.5
aatp1429
a((lp1430
(lp1431
g277
aa(lp1432
(lp1433
F0.6
aatp1434
a((lp1435
(lp1436
g277
aa(lp1437
(lp1438
F0.7
aatp1439
aVFOLLOWING IS DATA FOR debugGRV2XM:debugCBZLQI
p1440
a((lp1441
(lp1442
S'honeydew'
p1443
aS'hammer'
p1444
aS'wire'
p1445
aS'violin'
p1446
aa(lp1447
(lp1448
S'0.735864162445'
p1449
aS'0.735864162445'
p1450
aS'0.813681304455'
p1451
aS'0.849974095821'
p1452
aatp1453
a((lp1454
(lp1455
S'zebra'
p1456
aS'Ethiopia'
p1457
aS'lion'
p1458
aS'base'
p1459
aS'viola'
p1460
aS'Australia'
p1461
aS'Poland'
p1462
aS'Italy'
p1463
aS'yams'
p1464
aS'pink'
p1465
aS'elephant'
p1466
aa(lp1467
(lp1468
S'0.794382691383'
p1469
aS'0.794382691383'
p1470
aS'0.859743356705'
p1471
aS'0.859743356705'
p1472
aS'0.781238615513'
p1473
aS'0.90087646246'
p1474
aS'0.819863498211'
p1475
aS'0.911295056343'
p1476
aS'0.927685558796'
p1477
aS'0.927685558796'
p1478
aS'0.927685558796'
p1479
aatp1480
a((lp1481
(lp1482
S'Ginger'
p1483
aS'Ohio'
p1484
aS'Alaska'
p1485
aS'Fox'
p1486
aS'rhinoceros'
p1487
aS'termite'
p1488
aS'beetle'
p1489
aS'Pennsylvania'
p1490
aS'wax'
p1491
aS'rabbit'
p1492
aa(lp1493
(lp1494
S'0.81143951416'
p1495
aS'0.906692266464'
p1496
aS'0.905398070812'
p1497
aS'0.785730779171'
p1498
aS'0.850912451744'
p1499
aS'0.810269474983'
p1500
aS'0.850463449955'
p1501
aS'0.886858224869'
p1502
aS'0.729150176048'
p1503
aS'0.767507195473'
p1504
aatp1505
a((lp1506
(lp1507
S'marimba'
p1508
aS'ukulele'
p1509
aS'Elm'
p1510
aS'colander'
p1511
aS'jumper'
p1512
aS'blender'
p1513
aS'Cottonwood'
p1514
aa(lp1515
(lp1516
S'0.762403309345'
p1517
aS'0.820119380951'
p1518
aS'0.784938335419'
p1519
aS'0.812886118889'
p1520
aS'0.764785051346'
p1521
aS'0.812664747238'
p1522
aS'0.799747884274'
p1523
aatp1524
a((lp1525
(lp1526
S'zucchini'
p1527
aS'squash'
p1528
aS'elbow'
p1529
aS'Miami'
p1530
aS'Olive'
p1531
aS'Toronto'
p1532
aS'shoulder'
p1533
aS'kidney'
p1534
aa(lp1535
(lp1536
S'0.794058382511'
p1537
aS'0.845380067825'
p1538
aS'0.846184670925'
p1539
aS'0.858621060848'
p1540
aS'0.698809921741'
p1541
aS'0.847678601742'
p1542
aS'0.813230574131'
p1543
aS'0.7883233428'
p1544
aatp1545
a((lp1546
(lp1547
S'antelope'
p1548
aS'Michigan'
p1549
aS'Clementine'
p1550
aS'Coon'
p1551
aS'moose'
p1552
aS'lemon'
p1553
aS'antelope'
p1554
aS'pancreas'
p1555
aS'tongue'
p1556
aa(lp1557
(lp1558
S'0.81012481451'
p1559
aS'0.885151267052'
p1560
aS'0.847345888615'
p1561
aS'0.565048217773'
p1562
aS'0.809395849705'
p1563
aS'0.794221103191'
p1564
aS'0.81013160944'
p1565
aS'0.78353947401'
p1566
aS'0.811999320984'
p1567
aatp1568
a((lp1569
(lp1570
S'Arizona'
p1571
aS'Daisy'
p1572
aS'Montana'
p1573
aS'knife'
p1574
aS'Fork'
p1575
aS'Utah'
p1576
aS'Maine'
p1577
aS'sunflower'
p1578
aa(lp1579
(lp1580
S'0.889870762825'
p1581
aS'0.765599906445'
p1582
aS'0.891385734081'
p1583
aS'0.602440595627'
p1584
aS'0.729582726955'
p1585
aS'0.875405490398'
p1586
aS'0.898847997189'
p1587
aS'0.801753818989'
p1588
aatp1589
a((lp1590
(lp1591
S'Sycamore'
p1592
aS'mantis'
p1593
aS'trousers'
p1594
aS'bra'
p1595
aS'Chicago'
p1596
aS'sweater'
p1597
aS'trousers'
p1598
aa(lp1599
(lp1600
S'0.856850147247'
p1601
aS'0.806904375553'
p1602
aS'0.844499826431'
p1603
aS'0.838884413242'
p1604
aS'0.850348651409'
p1605
aS'0.857089579105'
p1606
aS'0.84449839592'
p1607
aatp1608
a((lp1609
(lp1610
g277
aa(lp1611
(lp1612
F0.0
aatp1613
a((lp1614
(lp1615
g277
aa(lp1616
(lp1617
F0.1
aatp1618
a((lp1619
(lp1620
g277
aa(lp1621
(lp1622
F0.2
aatp1623
a((lp1624
(lp1625
g277
aa(lp1626
(lp1627
F0.3
aatp1628
a((lp1629
(lp1630
g277
aa(lp1631
(lp1632
F0.4
aatp1633
a((lp1634
(lp1635
g277
aa(lp1636
(lp1637
F0.5
aatp1638
a((lp1639
(lp1640
g277
aa(lp1641
(lp1642
F0.6
aatp1643
a((lp1644
(lp1645
g277
aa(lp1646
(lp1647
F0.7
aatp1648
aVFOLLOWING IS DATA FOR debugU2BCQM:debugZV1XCV
p1649
a((lp1650
(lp1651
S'trousers'
p1652
aS'teak'
p1653
aS'millipede'
p1654
aS'Berlin'
p1655
aS'Sydney'
p1656
aS'Sycamore'
p1657
aS'Cedar'
p1658
aS'mantis'
p1659
aS'sweater'
p1660
aS'bra'
p1661
aS'Syracuse'
p1662
aS'right'
p1663
aS'now'
p1664
aa(lp1665
(lp1666
S'0.902414798737'
p1667
aS'0.902414798737'
p1668
aS'0.902414798737'
p1669
aS'0.902414798737'
p1670
aS'0.798130631447'
p1671
aS'0.801342308521'
p1672
aS'0.697281181812'
p1673
aS'0.738519847393'
p1674
aS'0.738519847393'
p1675
aS'0.845870137215'
p1676
aS'0.987629055977'
p1677
aS'0.493978857994'
p1678
aS'0.493978857994'
p1679
aatp1680
a((lp1681
(lp1682
S'honeydew'
p1683
aS'saxophone'
p1684
aS'Maple'
p1685
aS'Pine'
p1686
aS'clarinet'
p1687
aS'screws'
p1688
aS'hammer'
p1689
aS'wire'
p1690
aS'cello'
p1691
aS'elbow'
p1692
aa(lp1693
(lp1694
S'0.80141711235'
p1695
aS'0.80141711235'
p1696
aS'0.909090936184'
p1697
aS'0.909090936184'
p1698
aS'0.83122330904'
p1699
aS'0.809242546558'
p1700
aS'0.782909095287'
p1701
aS'0.812376141548'
p1702
aS'0.850711762905'
p1703
aS'0.801879763603'
p1704
aatp1705
a((lp1706
(lp1707
S'spatula'
p1708
aS'Mouse'
p1709
aS'call'
p1710
aS'way'
p1711
aS'guava'
p1712
aS'strawberries'
p1713
aS'refrigerator'
p1714
aS'glass'
p1715
aS'corridor'
p1716
aS'door'
p1717
aS'horse'
p1718
aS'kiwi'
p1719
aS'giraffe'
p1720
aS'how'
p1721
aa(lp1722
(lp1723
S'0.857374608517'
p1724
aS'0.764311850071'
p1725
aS'0.760487020016'
p1726
aS'0.760487020016'
p1727
aS'0.801928699017'
p1728
aS'0.965364575386'
p1729
aS'0.847153961658'
p1730
aS'0.788433670998'
p1731
aS'0.849639177322'
p1732
aS'0.809944450855'
p1733
aS'0.515592932701'
p1734
aS'0.779680848122'
p1735
aS'0.779680848122'
p1736
aS'0.909090936184'
p1737
aatp1738
a((lp1739
(lp1740
S'chisel'
p1741
aS'saw'
p1742
aS'Japan'
p1743
aS'protractor'
p1744
aS'squirrel'
p1745
aS'clarinet'
p1746
aS'drum'
p1747
aS'England'
p1748
aS'leopard'
p1749
aS'France'
p1750
aS'kazoo'
p1751
aS'cat'
p1752
aS'ferret'
p1753
aS'Switzerland'
p1754
aS'France'
p1755
aa(lp1756
(lp1757
S'0.856563508511'
p1758
aS'0.79328918457'
p1759
aS'0.901005625725'
p1760
aS'0.819703936577'
p1761
aS'0.80163115263'
p1762
aS'0.83122330904'
p1763
aS'0.807841718197'
p1764
aS'0.852272212505'
p1765
aS'0.813295185566'
p1766
aS'0.841472029686'
p1767
aS'0.850064992905'
p1768
aS'0.889005184174'
p1769
aS'0.846531271935'
p1770
aS'0.887882530689'
p1771
aS'0.793821513653'
p1772
aatp1773
a((lp1774
(lp1775
S'Ohio'
p1776
aS'Pennsylvania'
p1777
aS'chrysalis'
p1778
aS'rabbit'
p1779
aS'rhinoceros'
p1780
aS'Alaska'
p1781
aS'Ohio'
p1782
aS'Texas'
p1783
aS'Ginger'
p1784
aS'Fox'
p1785
aS'pumpkin'
p1786
aS'rutabaga'
p1787
aa(lp1788
(lp1789
S'0.906692266464'
p1790
aS'0.886858105659'
p1791
aS'0.826211035252'
p1792
aS'0.795207500458'
p1793
aS'0.827000379562'
p1794
aS'0.842699348927'
p1795
aS'0.842699348927'
p1796
aS'0.88842189312'
p1797
aS'0.811375379562'
p1798
aS'0.909090936184'
p1799
aS'0.800880134106'
p1800
aS'0.80788475275'
p1801
aatp1802
a((lp1803
(lp1804
S'dress'
p1805
aS'Arizona'
p1806
aS'underwear'
p1807
aS'Maine'
p1808
aS'Fork'
p1809
aS'toaster'
p1810
aS'skillet'
p1811
aS'Lily'
p1812
aS'face'
p1813
aS'Utah'
p1814
aS'Montana'
p1815
aS'sunflower'
p1816
aS'knife'
p1817
aS'pants'
p1818
aa(lp1819
(lp1820
S'0.803834676743'
p1821
aS'0.803834676743'
p1822
aS'0.804283082485'
p1823
aS'0.912773311138'
p1824
aS'0.424517303705'
p1825
aS'0.811597406864'
p1826
aS'0.849719822407'
p1827
aS'0.807082593441'
p1828
aS'0.736226141453'
p1829
aS'0.875405490398'
p1830
aS'0.891385734081'
p1831
aS'0.80175369978'
p1832
aS'0.850861489773'
p1833
aS'0.850487649441'
p1834
aatp1835
a((lp1836
(lp1837
S'foot'
p1838
aS'elbow'
p1839
aS'Panther'
p1840
aS'Olive'
p1841
aS'Toronto'
p1842
aS'Miami'
p1843
aS'sheep'
p1844
aS'goat'
p1845
aS'wolf'
p1846
aS'kidney'
p1847
aS'Miami'
p1848
aS'aubergine'
p1849
aS'shoulder'
p1850
aa(lp1851
(lp1852
S'0.787190020084'
p1853
aS'0.84618461132'
p1854
aS'0.783909142017'
p1855
aS'0.687978506088'
p1856
aS'0.847675800323'
p1857
aS'0.85823994875'
p1858
aS'0.789578557014'
p1859
aS'0.811401546001'
p1860
aS'0.813250601292'
p1861
aS'0.788296222687'
p1862
aS'0.858595371246'
p1863
aS'0.909090936184'
p1864
aS'0.813230931759'
p1865
aatp1866
a((lp1867
(lp1868
S'Willow'
p1869
aS'ankle'
p1870
aS'finger'
p1871
aS'Poplar'
p1872
aS'worm'
p1873
aS'guitar'
p1874
aS'Cedar'
p1875
aS'xylophone'
p1876
aS'accordion'
p1877
aS'hand'
p1878
aS'worm'
p1879
aS'larvae'
p1880
aS'Poplar'
p1881
aS'lip'
p1882
aa(lp1883
(lp1884
S'0.789686799049'
p1885
aS'0.768753409386'
p1886
aS'0.813422262669'
p1887
aS'0.799946010113'
p1888
aS'0.849096477032'
p1889
aS'0.80437374115'
p1890
aS'0.702070116997'
p1891
aS'0.814955890179'
p1892
aS'0.847877383232'
p1893
aS'0.457140207291'
p1894
aS'0.987629055977'
p1895
aS'0.987629055977'
p1896
aS'0.80034416914'
p1897
aS'0.79405516386'
p1898
aatp1899
a((lp1900
(lp1901
g277
aa(lp1902
(lp1903
F0.0
aatp1904
a((lp1905
(lp1906
g277
aa(lp1907
(lp1908
F0.1
aatp1909
a((lp1910
(lp1911
g277
aa(lp1912
(lp1913
F0.2
aatp1914
a((lp1915
(lp1916
g277
aa(lp1917
(lp1918
F0.3
aatp1919
a((lp1920
(lp1921
g277
aa(lp1922
(lp1923
F0.4
aatp1924
a((lp1925
(lp1926
g277
aa(lp1927
(lp1928
F0.5
aatp1929
a((lp1930
(lp1931
g277
aa(lp1932
(lp1933
F0.6
aatp1934
a((lp1935
(lp1936
g277
aa(lp1937
(lp1938
F0.7
aatp1939
aVFOLLOWING IS DATA FOR debugEZ0I68:debug0BYRL0
p1940
a((lp1941
(lp1942
S'hornet'
p1943
aS'home'
p1944
aS'sweater'
p1945
aS'gloves'
p1946
aS'mantis'
p1947
aS'millipede'
p1948
aS'Sydney'
p1949
aS'Chicago'
p1950
aS'teak'
p1951
aS'gloves'
p1952
aS'Reno'
p1953
aS'bra'
p1954
aa(lp1955
(lp1956
S'0.831441760063'
p1957
aS'0.813020527363'
p1958
aS'0.85746461153'
p1959
aS'0.848628818989'
p1960
aS'0.878321886063'
p1961
aS'0.878321886063'
p1962
aS'0.800535261631'
p1963
aS'0.850347995758'
p1964
aS'0.793705105782'
p1965
aS'0.842957437038'
p1966
aS'0.83547180891'
p1967
aS'0.838976800442'
p1968
aatp1969
a((lp1970
(lp1971
S'Arizona'
p1972
aS'girdle'
p1973
aS'dress'
p1974
aS'underwear'
p1975
aS'Montana'
p1976
aS'Utah'
p1977
aS'Maine'
p1978
aS'Daisy'
p1979
aS'sunflower'
p1980
aS'nurse'
p1981
aS'assist'
p1982
aS'knife'
p1983
aS'Fork'
p1984
aS'skillet'
p1985
aS'underwear'
p1986
aS'pants'
p1987
aS'Lily'
p1988
aa(lp1989
(lp1990
S'0.883013606071'
p1991
aS'0.883013606071'
p1992
aS'0.687684714794'
p1993
aS'0.687684714794'
p1994
aS'0.892775475979'
p1995
aS'0.875405490398'
p1996
aS'0.898906111717'
p1997
aS'0.801309704781'
p1998
aS'0.801309704781'
p1999
aS'0.801309704781'
p2000
aS'0.801309704781'
p2001
aS'0.837267935276'
p2002
aS'0.837267935276'
p2003
aS'0.837267935276'
p2004
aS'0.804279863834'
p2005
aS'0.850349068642'
p2006
aS'0.807418882847'
p2007
aatp2008
a((lp2009
(lp2010
S'drum'
p2011
aS'clarinet'
p2012
aS'piano'
p2013
aS'protractor'
p2014
aS'cat'
p2015
aS'leopard'
p2016
aS'Switzerland'
p2017
aS'saw'
p2018
aS'ferret'
p2019
aa(lp2020
(lp2021
S'0.807841539383'
p2022
aS'0.83122330904'
p2023
aS'0.822481036186'
p2024
aS'0.819694817066'
p2025
aS'0.957354724407'
p2026
aS'0.813295006752'
p2027
aS'0.673684477806'
p2028
aS'0.673684477806'
p2029
aS'0.850786566734'
p2030
aatp2031
a((lp2032
(lp2033
S'Monarch'
p2034
aS'scorpion'
p2035
aS'Mouse'
p2036
aS'wolf'
p2037
aS'finger'
p2038
aS'and'
p2039
aS'guitar'
p2040
aS'accordion'
p2041
aS'clarinet'
p2042
aa(lp2043
(lp2044
S'0.764954805374'
p2045
aS'0.764954805374'
p2046
aS'0.764345467091'
p2047
aS'0.565994083881'
p2048
aS'0.813422322273'
p2049
aS'0.909598648548'
p2050
aS'0.804371654987'
p2051
aS'0.847877800465'
p2052
aS'0.831222355366'
p2053
aatp2054
a((lp2055
(lp2056
S'Chrysalis'
p2057
aS'Ohio'
p2058
aS'Pennsylvania'
p2059
aS'Texas'
p2060
aS'X'
p2061
aS'termite'
p2062
aS'rhinoceros'
p2063
aS'Ginger'
p2064
aS'wasp'
p2065
aa(lp2066
(lp2067
S'0.897475063801'
p2068
aS'0.897475063801'
p2069
aS'0.897475063801'
p2070
aS'0.606060624123'
p2071
aS'0.606060624123'
p2072
aS'0.606060624123'
p2073
aS'0.827004134655'
p2074
aS'0.81149160862'
p2075
aS'0.846608161926'
p2076
aatp2077
a((lp2078
(lp2079
S'guava'
p2080
aS'kiwi'
p2081
aS'strawberry'
p2082
aS'Cow'
p2083
aS'Horse'
p2084
aS'giraffe'
p2085
aS'corridor'
p2086
aS'glass'
p2087
aS'door'
p2088
aS'window'
p2089
aS'spatula'
p2090
aS'refrigerator'
p2091
aS'tangelo'
p2092
aa(lp2093
(lp2094
S'0.904641330242'
p2095
aS'0.904641330242'
p2096
aS'0.904641330242'
p2097
aS'0.830732762814'
p2098
aS'0.830732762814'
p2099
aS'0.830732762814'
p2100
aS'0.942345023155'
p2101
aS'0.789088249207'
p2102
aS'0.810184299946'
p2103
aS'0.810096621513'
p2104
aS'0.748259603977'
p2105
aS'0.748259603977'
p2106
aS'0.850493609905'
p2107
aatp2108
a((lp2109
(lp2110
S'lemon'
p2111
aS'pear'
p2112
aS'pomegranate'
p2113
aS'Kansas'
p2114
aS'Florida'
p2115
aS'Michigan'
p2116
aS'Iowa'
p2117
aS'racoon'
p2118
aS'antelope'
p2119
aS'rib'
p2120
aS'pancreas'
p2121
aS'tooth'
p2122
aS'tongue'
p2123
aa(lp2124
(lp2125
S'0.794239163399'
p2126
aS'0.810224950314'
p2127
aS'0.847916960716'
p2128
aS'0.847963094711'
p2129
aS'0.909767746925'
p2130
aS'0.885151267052'
p2131
aS'0.872704803944'
p2132
aS'0.847833096981'
p2133
aS'0.810124456882'
p2134
aS'0.809934854507'
p2135
aS'0.783540070057'
p2136
aS'0.792725563049'
p2137
aS'0.850194692612'
p2138
aatp2139
a((lp2140
(lp2141
S'Paris'
p2142
aS'Montreal'
p2143
aS'Rome'
p2144
aS'Dallas'
p2145
aS'oven'
p2146
aS'mug'
p2147
aS'broiler'
p2148
aS'tambourine'
p2149
aS'pelvis'
p2150
aS'stomach'
p2151
aa(lp2152
(lp2153
S'0.85682040453'
p2154
aS'0.848587155342'
p2155
aS'0.85628080368'
p2156
aS'0.777016341686'
p2157
aS'0.850737214088'
p2158
aS'0.848600685596'
p2159
aS'0.811057925224'
p2160
aS'0.851796209812'
p2161
aS'0.841516375542'
p2162
aS'0.79816287756'
p2163
aatp2164
a((lp2165
(lp2166
g277
aa(lp2167
(lp2168
F0.0
aatp2169
a((lp2170
(lp2171
g277
aa(lp2172
(lp2173
F0.1
aatp2174
a((lp2175
(lp2176
g277
aa(lp2177
(lp2178
F0.2
aatp2179
a((lp2180
(lp2181
g277
aa(lp2182
(lp2183
F0.3
aatp2184
a((lp2185
(lp2186
g277
aa(lp2187
(lp2188
F0.4
aatp2189
a((lp2190
(lp2191
g277
aa(lp2192
(lp2193
F0.5
aatp2194
a((lp2195
(lp2196
g277
aa(lp2197
(lp2198
F0.6
aatp2199
a((lp2200
(lp2201
g277
aa(lp2202
(lp2203
F0.7
aatp2204
aVFOLLOWING IS DATA FOR debugB2KA2H:debugXQ3KDZ
p2205
a((lp2206
(lp2207
S'potato'
p2208
aS'jacket'
p2209
aS'Iran'
p2210
aS'camisole'
p2211
aS'artichoke'
p2212
aS'blouse'
p2213
aS'suit'
p2214
aS'garlic'
p2215
aa(lp2216
(lp2217
S'0.626034975052'
p2218
aS'0.626034975052'
p2219
aS'0.626034975052'
p2220
aS'0.909090936184'
p2221
aS'0.85276389122'
p2222
aS'0.730479121208'
p2223
aS'0.730479121208'
p2224
aS'0.804415524006'
p2225
aatp2226
a((lp2227
(lp2228
S'washer'
p2229
aS'Wisconsin'
p2230
aS'Vancouver'
p2231
aS'Tokyo'
p2232
aS'Philadelphia'
p2233
aS'mango'
p2234
aS'banana'
p2235
aS'nuts'
p2236
aS'nectarine'
p2237
aS'Jerusalem'
p2238
aa(lp2239
(lp2240
S'0.753479659557'
p2241
aS'0.753479659557'
p2242
aS'0.753479659557'
p2243
aS'0.753479659557'
p2244
aS'0.753479659557'
p2245
aS'0.883634030819'
p2246
aS'0.883634030819'
p2247
aS'0.883634030819'
p2248
aS'0.847185075283'
p2249
aS'0.850952982903'
p2250
aatp2251
a((lp2252
(lp2253
S'mug'
p2254
aS'Road'
p2255
aS'oven'
p2256
aS'Piccolo'
p2257
aS'arms'
p2258
aS'stomach'
p2259
aS'pelvis'
p2260
aS'hips'
p2261
aS'Montreal'
p2262
aS'tambourine'
p2263
aa(lp2264
(lp2265
S'0.807720541954'
p2266
aS'0.807720541954'
p2267
aS'0.807720541954'
p2268
aS'0.807720541954'
p2269
aS'0.980694711208'
p2270
aS'0.980694711208'
p2271
aS'0.980694711208'
p2272
aS'0.980694711208'
p2273
aS'0.848587155342'
p2274
aS'0.851780235767'
p2275
aatp2276
a((lp2277
(lp2278
S'guava'
p2279
aS'window'
p2280
aS'giraffe'
p2281
aS'horse'
p2282
aS'Corridor'
p2283
aS'door'
p2284
aS'pot'
p2285
aS'refrigerator'
p2286
aS'kiwi'
p2287
aa(lp2288
(lp2289
S'0.906362473965'
p2290
aS'0.906362473965'
p2291
aS'0.906362473965'
p2292
aS'0.906362473965'
p2293
aS'0.906362473965'
p2294
aS'0.906362473965'
p2295
aS'0.83133906126'
p2296
aS'0.83133906126'
p2297
aS'0.83133906126'
p2298
aatp2299
a((lp2300
(lp2301
S'Kansas'
p2302
aS'pear'
p2303
aS'rib'
p2304
aS'Michigan'
p2305
aS'Antelope'
p2306
aS'to'
p2307
aS'mouth'
p2308
aS'pomegranate'
p2309
aa(lp2310
(lp2311
S'0.847965717316'
p2312
aS'0.799707770348'
p2313
aS'0.848894715309'
p2314
aS'0.848894715309'
p2315
aS'0.54325902462'
p2316
aS'0.54325902462'
p2317
aS'0.954546153545'
p2318
aS'0.847916781902'
p2319
aatp2320
a((lp2321
(lp2322
S'bass'
p2323
aS'Poland'
p2324
aS'carrot'
p2325
aS'Viola'
p2326
aS'maracas'
p2327
aS'Pig'
p2328
aS'zebra'
p2329
aS'lion'
p2330
aS'trombone'
p2331
aS'Italy'
p2332
aS'Australia'
p2333
aS'lettuce'
p2334
aS'yams'
p2335
aa(lp2336
(lp2337
S'0.683666527271'
p2338
aS'0.683666527271'
p2339
aS'0.683666527271'
p2340
aS'0.949278473854'
p2341
aS'0.949278473854'
p2342
aS'0.810473561287'
p2343
aS'0.81276512146'
p2344
aS'0.801340162754'
p2345
aS'0.837569773197'
p2346
aS'0.911294639111'
p2347
aS'0.900875389576'
p2348
aS'0.810230910778'
p2349
aS'0.847937881947'
p2350
aatp2351
a((lp2352
(lp2353
S'larva'
p2354
aS'Ash'
p2355
aS'Monarch'
p2356
aS'scorpion'
p2357
aS'xylophone'
p2358
aS'hand'
p2359
aS'guitar'
p2360
aa(lp2361
(lp2362
S'0.729660868645'
p2363
aS'0.729660868645'
p2364
aS'0.729660868645'
p2365
aS'0.729660868645'
p2366
aS'0.814956068993'
p2367
aS'0.693146049976'
p2368
aS'0.693146049976'
p2369
aatp2370
a((lp2371
(lp2372
S'llama'
p2373
aS'Pennsylvania'
p2374
aS'Ohio'
p2375
aS'rutabaga'
p2376
aS'Alaska'
p2377
aS'Pennsylvania'
p2378
aa(lp2379
(lp2380
S'0.88808041811'
p2381
aS'0.88808041811'
p2382
aS'0.88808041811'
p2383
aS'0.987629055977'
p2384
aS'0.905398070812'
p2385
aS'0.886858105659'
p2386
aatp2387
a((lp2388
(lp2389
g277
aa(lp2390
(lp2391
F0.0
aatp2392
a((lp2393
(lp2394
g277
aa(lp2395
(lp2396
F0.1
aatp2397
a((lp2398
(lp2399
g277
aa(lp2400
(lp2401
F0.2
aatp2402
a((lp2403
(lp2404
g277
aa(lp2405
(lp2406
F0.3
aatp2407
a((lp2408
(lp2409
g277
aa(lp2410
(lp2411
F0.4
aatp2412
a((lp2413
(lp2414
g277
aa(lp2415
(lp2416
F0.5
aatp2417
a((lp2418
(lp2419
g277
aa(lp2420
(lp2421
F0.6
aatp2422
a((lp2423
(lp2424
g277
aa(lp2425
(lp2426
F0.7
aatp2427
aVFOLLOWING IS DATA FOR debugBAYG6H:debugO6ZJRN
p2428
a((lp2429
(lp2430
S'Ohio'
p2431
aS'Pennsylvania'
p2432
aS'Fox'
p2433
aS'rabbit'
p2434
aS'pumpkin'
p2435
aS'Chrysalis'
p2436
aS'rutabaga'
p2437
aS'llama'
p2438
aS'Ginger'
p2439
aS'rabbit'
p2440
aS'Texas'
p2441
aa(lp2442
(lp2443
S'0.906692266464'
p2444
aS'0.818854689598'
p2445
aS'0.818854689598'
p2446
aS'0.818854689598'
p2447
aS'0.818854689598'
p2448
aS'0.877155601978'
p2449
aS'0.877155601978'
p2450
aS'0.811884284019'
p2451
aS'0.811474025249'
p2452
aS'0.766699790955'
p2453
aS'0.789785683155'
p2454
aatp2455
a((lp2456
(lp2457
S'Paris'
p2458
aS'Montreal'
p2459
aS'Rome'
p2460
aS'royler'
p2461
aS'oven'
p2462
aS'tuba'
p2463
aS'tambourine'
p2464
aS'Piccolo'
p2465
aS'pelvis'
p2466
aS'stomach'
p2467
aS'mug'
p2468
aS'Dallas'
p2469
aa(lp2470
(lp2471
S'0.800336062908'
p2472
aS'0.800336062908'
p2473
aS'0.800336062908'
p2474
aS'0.800336062908'
p2475
aS'0.800336062908'
p2476
aS'0.800336062908'
p2477
aS'0.800336062908'
p2478
aS'0.85138374567'
p2479
aS'0.846383988857'
p2480
aS'0.797577381134'
p2481
aS'0.848616480827'
p2482
aS'0.807890295982'
p2483
aatp2484
a((lp2485
(lp2486
S'banana'
p2487
aS'kumquat'
p2488
aS'nectarine'
p2489
aS'mango'
p2490
aS'Vancouver'
p2491
aS'Philadelphia'
p2492
aS'Hawaii'
p2493
aS'California'
p2494
aS'glue'
p2495
aS'nuts'
p2496
aa(lp2497
(lp2498
S'0.809806704521'
p2499
aS'0.982360899448'
p2500
aS'0.982360899448'
p2501
aS'0.982360899448'
p2502
aS'0.840813875198'
p2503
aS'0.835473656654'
p2504
aS'0.859954357147'
p2505
aS'0.859954357147'
p2506
aS'0.790093541145'
p2507
aS'0.859200954437'
p2508
aatp2509
a((lp2510
(lp2511
S'Hickory'
p2512
aS'Pine'
p2513
aS'maple'
p2514
aS'cello'
p2515
aS'saxophone'
p2516
aS'screw'
p2517
aS'wire'
p2518
aS'wedge'
p2519
aS'raspberry'
p2520
aS'plum'
p2521
aS'Shake'
p2522
aa(lp2523
(lp2524
S'0.786088645458'
p2525
aS'0.616038680077'
p2526
aS'0.783985495567'
p2527
aS'0.850240886211'
p2528
aS'0.846855819225'
p2529
aS'0.987629055977'
p2530
aS'0.81237578392'
p2531
aS'0.809570252895'
p2532
aS'0.784331440926'
p2533
aS'0.788080990314'
p2534
aS'0.549095332623'
p2535
aatp2536
a((lp2537
(lp2538
S'buttercup'
p2539
aS'griddle'
p2540
aS'Dahlia'
p2541
aS'floor'
p2542
aS'onion'
p2543
aS'log'
p2544
aS'Azalea'
p2545
aS'pickle'
p2546
aS'strainer'
p2547
aS'broccoli'
p2548
aS'cauliflower'
p2549
aa(lp2550
(lp2551
S'0.849064409733'
p2552
aS'0.812165439129'
p2553
aS'0.857804477215'
p2554
aS'0.792827486992'
p2555
aS'0.811592638493'
p2556
aS'0.825797200203'
p2557
aS'0.844534993172'
p2558
aS'0.496627688408'
p2559
aS'0.849340617657'
p2560
aS'0.846900582314'
p2561
aS'0.81460082531'
p2562
aatp2563
a((lp2564
(lp2565
S'Maine'
p2566
aS'Montana'
p2567
aS'Arizona'
p2568
aS'Utah'
p2569
aS'toaster'
p2570
aS'underwear'
p2571
aS'dress'
p2572
aS'Fork'
p2573
aS'knife'
p2574
aS'girdle'
p2575
aS'Narcissus'
p2576
aS'Lily'
p2577
aS'sunflower'
p2578
aa(lp2579
(lp2580
S'0.807318389416'
p2581
aS'0.807318389416'
p2582
aS'0.807318389416'
p2583
aS'0.875405848026'
p2584
aS'0.811613321304'
p2585
aS'0.888698816299'
p2586
aS'0.768465697765'
p2587
aS'0.811994075775'
p2588
aS'0.848567903042'
p2589
aS'0.848529279232'
p2590
aS'0.849048733711'
p2591
aS'0.805622518063'
p2592
aS'0.801754176617'
p2593
aatp2594
a((lp2595
(lp2596
S'heart'
p2597
aS'knuckle'
p2598
aS'hippopotamus'
p2599
aS'tulip'
p2600
aS'tiger'
p2601
aS'dog'
p2602
aS'gazebo'
p2603
aS'carnation'
p2604
aa(lp2605
(lp2606
S'0.813451707363'
p2607
aS'0.786230802536'
p2608
aS'0.847550868988'
p2609
aS'0.802997887135'
p2610
aS'0.815017461777'
p2611
aS'0.803967654705'
p2612
aS'0.836410105228'
p2613
aS'0.807532072067'
p2614
aatp2615
a((lp2616
(lp2617
S'Switzerland'
p2618
aS'England'
p2619
aS'kazoo'
p2620
aa(lp2621
(lp2622
S'0.887882530689'
p2623
aS'0.852272212505'
p2624
aS'0.850070655346'
p2625
aatp2626
a((lp2627
(lp2628
g277
aa(lp2629
(lp2630
F0.0
aatp2631
a((lp2632
(lp2633
g277
aa(lp2634
(lp2635
F0.1
aatp2636
a((lp2637
(lp2638
g277
aa(lp2639
(lp2640
F0.2
aatp2641
a((lp2642
(lp2643
g277
aa(lp2644
(lp2645
F0.3
aatp2646
a((lp2647
(lp2648
g277
aa(lp2649
(lp2650
F0.4
aatp2651
a((lp2652
(lp2653
g277
aa(lp2654
(lp2655
F0.5
aatp2656
a((lp2657
(lp2658
g277
aa(lp2659
(lp2660
F0.6
aatp2661
a((lp2662
(lp2663
g277
aa(lp2664
(lp2665
F0.7
aatp2666
aVFOLLOWING IS DATA FOR debugVEI69J:debug4S3C4D
p2667
a((lp2668
(lp2669
S'rutabaga'
p2670
aS'llama'
p2671
aS'Ohio'
p2672
aS'Texas'
p2673
aS'Pennsylvania'
p2674
aS'Beetle'
p2675
aS'termite'
p2676
aS'chrysalis'
p2677
aS'okra'
p2678
aS'llama'
p2679
aS'Alaska'
p2680
aS'okra'
p2681
aS'Ohio'
p2682
aS'Pennsylvania'
p2683
aS'Beetle'
p2684
aS'termite'
p2685
aS'Lama'
p2686
aa(lp2687
(lp2688
S'0.812757909298'
p2689
aS'0.812757909298'
p2690
aS'0.812757909298'
p2691
aS'0.812757909298'
p2692
aS'0.812757909298'
p2693
aS'0.812757909298'
p2694
aS'0.812757909298'
p2695
aS'0.812757909298'
p2696
aS'0.826115489006'
p2697
aS'0.811656653881'
p2698
aS'0.905429065228'
p2699
aS'0.847277641296'
p2700
aS'0.847277641296'
p2701
aS'0.847277641296'
p2702
aS'0.864943444729'
p2703
aS'0.864943444729'
p2704
aS'0.864943444729'
p2705
aatp2706
a((lp2707
(lp2708
S'kiwi'
p2709
aS'spatula'
p2710
aS'giraffe'
p2711
aS'glass'
p2712
aS'refrigerator'
p2713
aS'window'
p2714
aS'strawberry'
p2715
aS'spatula'
p2716
aa(lp2717
(lp2718
S'0.852475643158'
p2719
aS'0.852475643158'
p2720
aS'0.852475643158'
p2721
aS'0.852475643158'
p2722
aS'0.852475643158'
p2723
aS'0.852475643158'
p2724
aS'0.785321056843'
p2725
aS'0.922256410122'
p2726
aatp2727
a((lp2728
(lp2729
S'mixer'
p2730
aS'colander'
p2731
aS'ukulele'
p2732
aS'banjo'
p2733
aS'Evergreen'
p2734
aS'Bruce'
p2735
aS'blender'
p2736
aa(lp2737
(lp2738
S'0.885909855366'
p2739
aS'0.885909855366'
p2740
aS'0.885909855366'
p2741
aS'0.885909855366'
p2742
aS'0.885909855366'
p2743
aS'0.885909855366'
p2744
aS'0.812666118145'
p2745
aatp2746
a((lp2747
(lp2748
S'Maple'
p2749
aS'Hickory'
p2750
aS'Elm'
p2751
aS'pine-strawberry'
p2752
aS'from'
p2753
aS'Honey'
p2754
aS'Boo'
p2755
aS'Boo'
p2756
aS'fig'
p2757
aS'screws'
p2758
aS'hammer'
p2759
aa(lp2760
(lp2761
S'0.784098029137'
p2762
aS'0.784098029137'
p2763
aS'0.784098029137'
p2764
aS'0.784098029137'
p2765
aS'0.784098029137'
p2766
aS'0.784098029137'
p2767
aS'0.784098029137'
p2768
aS'0.784098029137'
p2769
aS'0.791024982929'
p2770
aS'0.809243261814'
p2771
aS'0.783343434334'
p2772
aatp2773
a((lp2774
(lp2775
S'Egypt'
p2776
aS'Germany'
p2777
aS'Cuba'
p2778
aS'Iran'
p2779
aS'Lobby'
p2780
aS'furnace'
p2781
aS'blouse'
p2782
aS'camisole'
p2783
aS'jacket'
p2784
aS'artichoke'
p2785
aa(lp2786
(lp2787
S'0.822345137596'
p2788
aS'0.822345137596'
p2789
aS'0.822345137596'
p2790
aS'0.822345137596'
p2791
aS'0.822345137596'
p2792
aS'0.822345137596'
p2793
aS'0.822345137596'
p2794
aS'0.822345137596'
p2795
aS'0.822345137596'
p2796
aS'0.852764368057'
p2797
aatp2798
a((lp2799
(lp2800
S'Sycamore'
p2801
aS'Cedar'
p2802
aS"Bob's"
p2803
aS'raw'
p2804
aS'Reno'
p2805
aS'teak'
p2806
aS'Berlin'
p2807
aS'Chicago'
p2808
aS'Sydney'
p2809
aS'millipede'
p2810
aS'mosquito'
p2811
aS'hornet'
p2812
aS'blouse'
p2813
aa(lp2814
(lp2815
S'0.789007544518'
p2816
aS'0.789007544518'
p2817
aS'0.882698118687'
p2818
aS'0.882698118687'
p2819
aS'0.882698118687'
p2820
aS'0.882698118687'
p2821
aS'0.882698118687'
p2822
aS'0.882698118687'
p2823
aS'0.882698118687'
p2824
aS'0.882698118687'
p2825
aS'0.882698118687'
p2826
aS'0.831463634968'
p2827
aS'0.798463404179'
p2828
aatp2829
a((lp2830
(lp2831
S'leopard'
p2832
aS'France'
p2833
aS'chisel'
p2834
aS'bolts'
p2835
aS'drums'
p2836
aS'piano'
p2837
aS'Zoo'
p2838
aS'leopard'
p2839
aa(lp2840
(lp2841
S'0.714744567871'
p2842
aS'0.714744567871'
p2843
aS'0.817428231239'
p2844
aS'0.817428231239'
p2845
aS'0.937875628471'
p2846
aS'0.937875628471'
p2847
aS'0.805091619492'
p2848
aS'0.813294172287'
p2849
aatp2850
a((lp2851
(lp2852
S'girdle'
p2853
aS'Skillet'
p2854
aS'main'
p2855
aS'Utah'
p2856
aS'Montana'
p2857
aS'underwear'
p2858
aS'Fork'
p2859
aS'toaster'
p2860
aa(lp2861
(lp2862
S'0.685044825077'
p2863
aS'0.685044825077'
p2864
aS'0.685044825077'
p2865
aS'0.685044825077'
p2866
aS'0.685044825077'
p2867
aS'0.685044825077'
p2868
aS'0.793524742126'
p2869
aS'0.793524742126'
p2870
aatp2871
a((lp2872
(lp2873
g277
aa(lp2874
(lp2875
F0.0
aatp2876
a((lp2877
(lp2878
g277
aa(lp2879
(lp2880
F0.1
aatp2881
a((lp2882
(lp2883
g277
aa(lp2884
(lp2885
F0.2
aatp2886
a((lp2887
(lp2888
g277
aa(lp2889
(lp2890
F0.3
aatp2891
a((lp2892
(lp2893
g277
aa(lp2894
(lp2895
F0.4
aatp2896
a((lp2897
(lp2898
g277
aa(lp2899
(lp2900
F0.5
aatp2901
a((lp2902
(lp2903
g277
aa(lp2904
(lp2905
F0.6
aatp2906
a((lp2907
(lp2908
g277
aa(lp2909
(lp2910
F0.7
aatp2911
aVFOLLOWING IS DATA FOR debugQ9SHVQ:debug8PBYVB
p2912
a((lp2913
(lp2914
S'lemon'
p2915
aS'Kansas'
p2916
aS'Michigan'
p2917
aS'moose'
p2918
aS'Iowa'
p2919
aS'Clementine'
p2920
aS'rib'
p2921
aS'monkey'
p2922
aS'pomegranate'
p2923
aS'antelope'
p2924
aS'Florida'
p2925
aS'lemon'
p2926
aa(lp2927
(lp2928
S'0.794211030006'
p2929
aS'0.684563398361'
p2930
aS'0.684563398361'
p2931
aS'0.808334708214'
p2932
aS'0.972676992416'
p2933
aS'0.972676992416'
p2934
aS'0.972676992416'
p2935
aS'0.770925760269'
p2936
aS'0.847917079926'
p2937
aS'0.810139834881'
p2938
aS'0.909767568111'
p2939
aS'0.78667652607'
p2940
aatp2941
a((lp2942
(lp2943
S'accordion'
p2944
aS'xylophone'
p2945
aS'guitar'
p2946
aS'eucalyptus'
p2947
aS'Poplar'
p2948
aS'Willow'
p2949
aS'bongos'
p2950
aS'finger'
p2951
aS'hand'
p2952
aS'ankle'
p2953
aS'larva'
p2954
aS'worm'
p2955
aa(lp2956
(lp2957
S'0.847877085209'
p2958
aS'0.8149523139'
p2959
aS'0.803585112095'
p2960
aS'0.812007725239'
p2961
aS'0.800484776497'
p2962
aS'0.789686858654'
p2963
aS'0.823020517826'
p2964
aS'0.813514828682'
p2965
aS'0.806641042233'
p2966
aS'0.76875770092'
p2967
aS'0.775577843189'
p2968
aS'0.849096953869'
p2969
aatp2970
a((lp2971
(lp2972
S'broccoli'
p2973
aS'cauliflower'
p2974
aS'onion'
p2975
aS'elevator'
p2976
aS'floor'
p2977
aS'Azalea'
p2978
aS'Dahlia'
p2979
aS'buttercup'
p2980
aS'saucer'
p2981
aS'log'
p2982
aS'dish'
p2983
aa(lp2984
(lp2985
S'0.846899271011'
p2986
aS'0.790512621403'
p2987
aS'0.811568140984'
p2988
aS'0.849374055862'
p2989
aS'0.792827129364'
p2990
aS'0.844539582729'
p2991
aS'0.857805192471'
p2992
aS'0.849064230919'
p2993
aS'0.807297885418'
p2994
aS'0.790521025658'
p2995
aS'0.804395198822'
p2996
aatp2997
a((lp2998
(lp2999
S'girdle'
p3000
aS'skillet'
p3001
aS'Fork'
p3002
aS'knife'
p3003
aS'underwear'
p3004
aS'pants'
p3005
aS'Utah'
p3006
aS'Maine'
p3007
aS'Arizona'
p3008
aS'Montana'
p3009
aS'Narcissus'
p3010
aS'Lily'
p3011
aS'sunflower'
p3012
aS'dress'
p3013
aa(lp3014
(lp3015
S'0.77071160078'
p3016
aS'0.84972012043'
p3017
aS'0.81199413538'
p3018
aS'0.806928396225'
p3019
aS'0.804279863834'
p3020
aS'0.850447118282'
p3021
aS'0.875405490398'
p3022
aS'0.89890563488'
p3023
aS'0.889870882034'
p3024
aS'0.891385734081'
p3025
aS'0.848918378353'
p3026
aS'0.80741840601'
p3027
aS'0.801753818989'
p3028
aS'0.76866954565'
p3029
aatp3030
a((lp3031
(lp3032
S'Reno'
p3033
aS'teak'
p3034
aS'mantis'
p3035
aS'millipede'
p3036
aS'Sycamore'
p3037
aS'Cedar'
p3038
aS'Chicago'
p3039
aS'home'
p3040
aS'bra'
p3041
aS'bra'
p3042
aS'trousers'
p3043
aS'sweater'
p3044
aa(lp3045
(lp3046
S'0.835470855236'
p3047
aS'0.793805897236'
p3048
aS'0.80734193325'
p3049
aS'0.832606136799'
p3050
aS'0.800749957561'
p3051
aS'0.694238901138'
p3052
aS'0.850348651409'
p3053
aS'0.534737050533'
p3054
aS'0.943921208382'
p3055
aS'0.943921208382'
p3056
aS'0.844499111176'
p3057
aS'0.857637047768'
p3058
aatp3059
a((lp3060
(lp3061
S'aubergine'
p3062
aS'shoulder'
p3063
aS'elbow'
p3064
aS'but'
p3065
aS'kidney'
p3066
aS'wolf'
p3067
aS'Panther'
p3068
aS'goat'
p3069
aS'sheep'
p3070
aS'Stockholm'
p3071
aS'Miami'
p3072
aS'Olive'
p3073
aa(lp3074
(lp3075
S'0.987629055977'
p3076
aS'0.813230574131'
p3077
aS'0.846184670925'
p3078
aS'0.641988694668'
p3079
aS'0.788471639156'
p3080
aS'0.807771801949'
p3081
aS'0.783340871334'
p3082
aS'0.812491714954'
p3083
aS'0.856632709503'
p3084
aS'0.835508108139'
p3085
aS'0.858709156513'
p3086
aS'0.685706853867'
p3087
aatp3088
a((lp3089
(lp3090
S'chimney'
p3091
aS'furnace'
p3092
aS'potato'
p3093
aS'jacket'
p3094
aS'spinach'
p3095
aS'artichoke'
p3096
aS'Germany'
p3097
aS'Egypt'
p3098
aS'Cuba'
p3099
aS'closet'
p3100
aS'blouse'
p3101
aS'camisole'
p3102
aa(lp3103
(lp3104
S'0.806543946266'
p3105
aS'0.768366932869'
p3106
aS'0.813245773315'
p3107
aS'0.842438161373'
p3108
aS'0.812007069588'
p3109
aS'0.852764308453'
p3110
aS'0.908733010292'
p3111
aS'0.865747272968'
p3112
aS'0.842607796192'
p3113
aS'0.78074836731'
p3114
aS'0.798465311527'
p3115
aS'0.851287543774'
p3116
aatp3117
a((lp3118
(lp3119
S'Texas'
p3120
aS'Alaska'
p3121
aS'rutabaga'
p3122
aS'okra'
p3123
aS'Ginger'
p3124
aS'Fox'
p3125
aS'rhinoceros'
p3126
aS'mama'
p3127
aS'wasp'
p3128
aS'chrysalis'
p3129
aS'Ohio'
p3130
aa(lp3131
(lp3132
S'0.888422608376'
p3133
aS'0.905398070812'
p3134
aS'0.807881057262'
p3135
aS'0.826115489006'
p3136
aS'0.811462163925'
p3137
aS'0.817467927933'
p3138
aS'0.827004134655'
p3139
aS'0.891124010086'
p3140
aS'0.845081746578'
p3141
aS'0.826337218285'
p3142
aS'0.90669208765'
p3143
aatp3144
a((lp3145
(lp3146
g277
aa(lp3147
(lp3148
F0.0
aatp3149
a((lp3150
(lp3151
g277
aa(lp3152
(lp3153
F0.1
aatp3154
a((lp3155
(lp3156
g277
aa(lp3157
(lp3158
F0.2
aatp3159
a((lp3160
(lp3161
g277
aa(lp3162
(lp3163
F0.3
aatp3164
a((lp3165
(lp3166
g277
aa(lp3167
(lp3168
F0.4
aatp3169
a((lp3170
(lp3171
g277
aa(lp3172
(lp3173
F0.5
aatp3174
a((lp3175
(lp3176
g277
aa(lp3177
(lp3178
F0.6
aatp3179
a((lp3180
(lp3181
g277
aa(lp3182
(lp3183
F0.7
aatp3184
aVFOLLOWING IS DATA FOR debugOZAQYJ:debug6QIMBF
p3185
a((lp3186
(lp3187
S'Florida'
p3188
aS'Michigan'
p3189
aS'Iowa'
p3190
aS'pomegranate'
p3191
aS'Clementine'
p3192
aS'lemon'
p3193
aS'hair'
p3194
aS'rib'
p3195
aS'tooth'
p3196
aS'monkey'
p3197
aS'antelope'
p3198
aS'moose'
p3199
aS'pancreas'
p3200
aa(lp3201
(lp3202
S'0.909767746925'
p3203
aS'0.885151267052'
p3204
aS'0.872700273991'
p3205
aS'0.889719426632'
p3206
aS'0.889719426632'
p3207
aS'0.889719426632'
p3208
aS'0.889719426632'
p3209
aS'0.807776808739'
p3210
aS'0.814379096031'
p3211
aS'0.771043181419'
p3212
aS'0.810124397278'
p3213
aS'0.808701634407'
p3214
aS'0.812083363533'
p3215
aatp3216
a((lp3217
(lp3218
S'trombone'
p3219
aS'Ethiopia'
p3220
aS'Pig'
p3221
aS'zebra'
p3222
aS'celery'
p3223
aS'yams'
p3224
aS'maracas'
p3225
aS'lion'
p3226
aS'viola'
p3227
aS'Bass'
p3228
aS'Italy'
p3229
aa(lp3230
(lp3231
S'0.83757019043'
p3232
aS'0.911174476147'
p3233
aS'0.813111305237'
p3234
aS'0.812765181065'
p3235
aS'0.85727596283'
p3236
aS'0.94928085804'
p3237
aS'0.94928085804'
p3238
aS'0.801542818546'
p3239
aS'0.77967864275'
p3240
aS'0.833479464054'
p3241
aS'0.911296784878'
p3242
aatp3243
a((lp3244
(lp3245
S'arms'
p3246
aS'stomach'
p3247
aS'pelvis'
p3248
aS'tuba'
p3249
aS'Piccolo'
p3250
aS'Montreal'
p3251
aS'Rome'
p3252
aS'broiler'
p3253
aS'oven'
p3254
aS'mug'
p3255
aS'hip'
p3256
aa(lp3257
(lp3258
S'0.778089523315'
p3259
aS'0.798062384129'
p3260
aS'0.84151506424'
p3261
aS'0.765061080456'
p3262
aS'0.851383328438'
p3263
aS'0.848587155342'
p3264
aS'0.85669952631'
p3265
aS'0.987629055977'
p3266
aS'0.850776255131'
p3267
aS'0.848518371582'
p3268
aS'0.850207924843'
p3269
aatp3270
a((lp3271
(lp3272
S'Philadelphia'
p3273
aS'Wisconsin'
p3274
aS'California'
p3275
aS'Hawaii'
p3276
aS'banana'
p3277
aS'nuts'
p3278
aS'kumquat'
p3279
aS'mango'
p3280
aS'Jerusalem'
p3281
aS'glue'
p3282
aa(lp3283
(lp3284
S'0.835473299026'
p3285
aS'0.897291064262'
p3286
aS'0.876239180565'
p3287
aS'0.896888434887'
p3288
aS'0.81192356348'
p3289
aS'0.847058594227'
p3290
aS'0.850478172302'
p3291
aS'0.79044765234'
p3292
aS'0.850952804089'
p3293
aS'0.797472834587'
p3294
aatp3295
a((lp3296
(lp3297
S'drum'
p3298
aS'saw'
p3299
aS'kazoo'
p3300
aS'England'
p3301
aS'Japan'
p3302
aS'drones'
p3303
aS'bolts'
p3304
aS'chisel'
p3305
aS'shadow'
p3306
aS'ferret'
p3307
aS'squirrel'
p3308
aa(lp3309
(lp3310
S'0.807841777802'
p3311
aS'0.505632698536'
p3312
aS'0.850071310997'
p3313
aS'0.852270781994'
p3314
aS'0.90099132061'
p3315
aS'0.649443686008'
p3316
aS'0.85347032547'
p3317
aS'0.856563210487'
p3318
aS'0.792774260044'
p3319
aS'0.848191022873'
p3320
aS'0.802029669285'
p3321
aatp3322
a((lp3323
(lp3324
S'Texas'
p3325
aS'Pennsylvania'
p3326
aS'Ohio'
p3327
aS'Alaska'
p3328
aS'okra'
p3329
aS'beetles'
p3330
aS'termite'
p3331
aS'Chrysalis'
p3332
aS'room'
p3333
aS'bottarga'
p3334
aS'rabbit'
p3335
aS'okra'
p3336
aS'Fox'
p3337
aa(lp3338
(lp3339
S'0.776306450367'
p3340
aS'0.776306450367'
p3341
aS'0.776306450367'
p3342
aS'0.776306450367'
p3343
aS'0.776306450367'
p3344
aS'0.776306450367'
p3345
aS'0.776306450367'
p3346
aS'0.776306450367'
p3347
aS'0.776306450367'
p3348
aS'0.776306450367'
p3349
aS'0.799269795418'
p3350
aS'0.826115906239'
p3351
aS'0.787561953068'
p3352
aatp3353
a((lp3354
(lp3355
S'sweater'
p3356
aS'bra'
p3357
aS'gloves'
p3358
aS'trousers'
p3359
aS'Sycamore'
p3360
aS'teak'
p3361
aS'Palm'
p3362
aS'Sydney'
p3363
aS'Berlin'
p3364
aS'Reno'
p3365
aS'millipede'
p3366
aS'mosquito'
p3367
aS'hornet'
p3368
aa(lp3369
(lp3370
S'0.909090936184'
p3371
aS'0.909090936184'
p3372
aS'0.812720477581'
p3373
aS'0.844499289989'
p3374
aS'0.800723969936'
p3375
aS'0.909090936184'
p3376
aS'0.563198626041'
p3377
aS'0.800535261631'
p3378
aS'0.846612274647'
p3379
aS'0.83547180891'
p3380
aS'0.766474485397'
p3381
aS'0.766474485397'
p3382
aS'0.831402003765'
p3383
aatp3384
a((lp3385
(lp3386
S'Foundation'
p3387
aS'carpet'
p3388
aS'floor'
p3389
aS'mug'
p3390
aS'saucer'
p3391
aS'strainer'
p3392
aS'griddle'
p3393
aS'broccoli'
p3394
aS'did'
p3395
aS'Delilah'
p3396
aS'Azalea'
p3397
aS'Delilah'
p3398
aS'cauliflower'
p3399
aS'onion'
p3400
aa(lp3401
(lp3402
S'0.850683867931'
p3403
aS'0.869906783104'
p3404
aS'0.869906783104'
p3405
aS'0.812864840031'
p3406
aS'0.860228657722'
p3407
aS'0.860228657722'
p3408
aS'0.812163174152'
p3409
aS'0.761229157448'
p3410
aS'0.801115512848'
p3411
aS'0.801115512848'
p3412
aS'0.844535648823'
p3413
aS'0.889637947083'
p3414
aS'0.858941495419'
p3415
aS'0.811568140984'
p3416
aatp3417
a((lp3418
(lp3419
g277
aa(lp3420
(lp3421
F0.0
aatp3422
a((lp3423
(lp3424
g277
aa(lp3425
(lp3426
F0.1
aatp3427
a((lp3428
(lp3429
g277
aa(lp3430
(lp3431
F0.2
aatp3432
a((lp3433
(lp3434
g277
aa(lp3435
(lp3436
F0.3
aatp3437
a((lp3438
(lp3439
g277
aa(lp3440
(lp3441
F0.4
aatp3442
a((lp3443
(lp3444
g277
aa(lp3445
(lp3446
F0.5
aatp3447
a((lp3448
(lp3449
g277
aa(lp3450
(lp3451
F0.6
aatp3452
a((lp3453
(lp3454
g277
aa(lp3455
(lp3456
F0.7
aatp3457
aVFOLLOWING IS DATA FOR debug73JNQK:debugN2XGP7
p3458
a((lp3459
(lp3460
S'Ash'
p3461
aS'hand'
p3462
aS'Monarch'
p3463
aS'lip'
p3464
aS'Willow'
p3465
aS'ankle'
p3466
aS'bongos'
p3467
aS'accordion'
p3468
aa(lp3469
(lp3470
S'0.791549444199'
p3471
aS'0.797157347202'
p3472
aS'0.747233510017'
p3473
aS'0.747233510017'
p3474
aS'0.789686918259'
p3475
aS'0.768720269203'
p3476
aS'0.811975479126'
p3477
aS'0.847877144814'
p3478
aatp3479
a((lp3480
(lp3481
S'Bombay'
p3482
aS'Stockholm'
p3483
aS'aubergine'
p3484
aS'zucchini'
p3485
aS'squash'
p3486
aS'shoulder'
p3487
aS'foot'
p3488
aS'elbow'
p3489
aS'goat'
p3490
aS'wolf'
p3491
aS'Miami'
p3492
aa(lp3493
(lp3494
S'0.789282262325'
p3495
aS'0.835198044777'
p3496
aS'0.92450016737'
p3497
aS'0.794056773186'
p3498
aS'0.845380067825'
p3499
aS'0.813230514526'
p3500
aS'0.805240154266'
p3501
aS'0.84618461132'
p3502
aS'0.812491774559'
p3503
aS'0.809735953808'
p3504
aS'0.858633339405'
p3505
aatp3506
a((lp3507
(lp3508
S'Ohio'
p3509
aS'Alaska'
p3510
aS'Pennsylvania'
p3511
aS'Texas'
p3512
aS'rhinoceros'
p3513
aS'Fox'
p3514
aS'termite'
p3515
aS'rutabaga'
p3516
aS'chrysalis'
p3517
aS'rhinoceros'
p3518
aa(lp3519
(lp3520
S'0.906692445278'
p3521
aS'0.905398070812'
p3522
aS'0.886858165264'
p3523
aS'0.888422548771'
p3524
aS'0.827000558376'
p3525
aS'0.787912726402'
p3526
aS'0.810270190239'
p3527
aS'0.807886064053'
p3528
aS'0.826332569122'
p3529
aS'0.827000379562'
p3530
aatp3531
a((lp3532
(lp3533
S'saucer'
p3534
aS'griddle'
p3535
aS'Dahlia'
p3536
aS'Azalea'
p3537
aS'Foundation'
p3538
aS'log'
p3539
aS'floor'
p3540
aS'elevator'
p3541
aS'broccoli'
p3542
aa(lp3543
(lp3544
S'0.807300209999'
p3545
aS'0.812164962292'
p3546
aS'0.85780441761'
p3547
aS'0.844534993172'
p3548
aS'0.850683450699'
p3549
aS'0.790181398392'
p3550
aS'0.810157835484'
p3551
aS'0.849373817444'
p3552
aS'0.846899926662'
p3553
aatp3554
a((lp3555
(lp3556
S'Japan'
p3557
aS'squirrel'
p3558
aS'drum'
p3559
aS'piano'
p3560
aS'kazoo'
p3561
aS'France'
p3562
aS'leopard'
p3563
aS'boat'
p3564
aS'chiseled'
p3565
aS'Switzerland'
p3566
aS'protractor'
p3567
aS'cat'
p3568
aS'England'
p3569
aS'clarinet'
p3570
aa(lp3571
(lp3572
S'0.900990664959'
p3573
aS'0.802173137665'
p3574
aS'0.807841598988'
p3575
aS'0.822486817837'
p3576
aS'0.850064992905'
p3577
aS'0.850650250912'
p3578
aS'0.813295245171'
p3579
aS'0.805797576904'
p3580
aS'0.800663709641'
p3581
aS'0.887883245945'
p3582
aS'0.819704592228'
p3583
aS'0.940957188606'
p3584
aS'0.852272093296'
p3585
aS'0.831222355366'
p3586
aatp3587
a((lp3588
(lp3589
S'petunia'
p3590
aS'Rose'
p3591
aS'carnation'
p3592
aS'gazebo'
p3593
aS'kitchen'
p3594
aS'Alcove'
p3595
aS'dog'
p3596
aS'donkey'
p3597
aS'hippopotamus'
p3598
aS'tiger'
p3599
aS'knuckle'
p3600
aS'ear'
p3601
aS'heart'
p3602
aa(lp3603
(lp3604
S'0.850463032722'
p3605
aS'0.814239382744'
p3606
aS'0.807532250881'
p3607
aS'0.836410284042'
p3608
aS'0.812110722065'
p3609
aS'0.812352359295'
p3610
aS'0.804175794125'
p3611
aS'0.810975909233'
p3612
aS'0.847550868988'
p3613
aS'0.815010368824'
p3614
aS'0.785727620125'
p3615
aS'0.815243422985'
p3616
aS'0.815495014191'
p3617
aatp3618
a((lp3619
(lp3620
S'stomach'
p3621
aS'Montreal'
p3622
aS'Rome'
p3623
aS'Dallas'
p3624
aS'tuba'
p3625
aS'trumpet'
p3626
aS'piccolo'
p3627
aS'broiler'
p3628
aS'oven'
p3629
aS'pelvis'
p3630
aa(lp3631
(lp3632
S'0.798160731792'
p3633
aS'0.848587751389'
p3634
aS'0.856382787228'
p3635
aS'0.777016341686'
p3636
aS'0.768795192242'
p3637
aS'0.839157581329'
p3638
aS'0.851383149624'
p3639
aS'0.811057984829'
p3640
aS'0.850776195526'
p3641
aS'0.841613709927'
p3642
aatp3643
a((lp3644
(lp3645
S'antelope'
p3646
aS'moose'
p3647
aS'monkey'
p3648
aS'Florida'
p3649
aS'Michigan'
p3650
aS'Iowa'
p3651
aa(lp3652
(lp3653
S'0.810124456882'
p3654
aS'0.809207201004'
p3655
aS'0.771041631699'
p3656
aS'0.909767329693'
p3657
aS'0.885151267052'
p3658
aS'0.872701406479'
p3659
aatp3660
a((lp3661
(lp3662
g277
aa(lp3663
(lp3664
F0.0
aatp3665
a((lp3666
(lp3667
g277
aa(lp3668
(lp3669
F0.1
aatp3670
a((lp3671
(lp3672
g277
aa(lp3673
(lp3674
F0.2
aatp3675
a((lp3676
(lp3677
g277
aa(lp3678
(lp3679
F0.3
aatp3680
a((lp3681
(lp3682
g277
aa(lp3683
(lp3684
F0.4
aatp3685
a((lp3686
(lp3687
g277
aa(lp3688
(lp3689
F0.5
aatp3690
a((lp3691
(lp3692
g277
aa(lp3693
(lp3694
F0.6
aatp3695
a((lp3696
(lp3697
g277
aa(lp3698
(lp3699
F0.7
aatp3700
aVFOLLOWING IS DATA FOR debug4X4DE6:debugONBJTZ
p3701
a((lp3702
(lp3703
S'Ohio'
p3704
aS'Pennsylvania'
p3705
aS'Alaska'
p3706
aS'Texas'
p3707
aS'rutabaga'
p3708
aS'pumpkin'
p3709
aS'okra'
p3710
aS'llama'
p3711
aS'rhinoceros'
p3712
aS'Ginger'
p3713
aS'rabbit'
p3714
aS'beetle'
p3715
aS'chrysalis'
p3716
aa(lp3717
(lp3718
S'0.906691014767'
p3719
aS'0.886858105659'
p3720
aS'0.905397891998'
p3721
aS'0.888422548771'
p3722
aS'0.807886064053'
p3723
aS'0.80087774992'
p3724
aS'0.826114237309'
p3725
aS'0.811687529087'
p3726
aS'0.827000558376'
p3727
aS'0.811505496502'
p3728
aS'0.766700208187'
p3729
aS'0.850463449955'
p3730
aS'0.826332569122'
p3731
aatp3732
a((lp3733
(lp3734
S'Broiler'
p3735
aS'hick'
p3736
aS'Paris'
p3737
aS'mug'
p3738
aS'thermometer'
p3739
aS'Dallas'
p3740
aS'Rome'
p3741
aS'tuba'
p3742
aS'arms'
p3743
aS'trumpet'
p3744
aS'pelvis'
p3745
aS'tambourine'
p3746
aS'stomach'
p3747
aS'Piccolo'
p3748
aa(lp3749
(lp3750
S'0.909090936184'
p3751
aS'0.909090936184'
p3752
aS'0.856370687485'
p3753
aS'0.848518311977'
p3754
aS'0.771320581436'
p3755
aS'0.771320581436'
p3756
aS'0.812074005604'
p3757
aS'0.765060663223'
p3758
aS'0.737958669662'
p3759
aS'0.737958669662'
p3760
aS'0.876954555511'
p3761
aS'0.876954555511'
p3762
aS'0.851333975792'
p3763
aS'0.851333975792'
p3764
aatp3765
a((lp3766
(lp3767
S'kumquat'
p3768
aS'ruler'
p3769
aS'banana'
p3770
aS'glue'
p3771
aS'Jerusalem'
p3772
aS'mango'
p3773
aS'Vancouver'
p3774
aS'Hawaii'
p3775
aS'Philadelphia'
p3776
aS'Vermont'
p3777
aS'Wisconsin'
p3778
aS'California'
p3779
aa(lp3780
(lp3781
S'0.751723349094'
p3782
aS'0.751723349094'
p3783
aS'0.751723349094'
p3784
aS'0.778224825859'
p3785
aS'0.756442904472'
p3786
aS'0.756442904472'
p3787
aS'0.840813875198'
p3788
aS'0.896887302399'
p3789
aS'0.835473656654'
p3790
aS'0.886682748795'
p3791
aS'0.897291302681'
p3792
aS'0.876239836216'
p3793
aatp3794
a((lp3795
(lp3796
S'Foundation'
p3797
aS'dish'
p3798
aS'griddle'
p3799
aS'onions'
p3800
aS'pickles'
p3801
aS'Dahlia'
p3802
aS'cauliflower'
p3803
aS'floor'
p3804
aS'azaleas'
p3805
aS'log'
p3806
aS'saucer'
p3807
aS'broccoli'
p3808
aS'strainer'
p3809
aS'carpet'
p3810
aS'Buttercup'
p3811
aS'elevator'
p3812
aa(lp3813
(lp3814
S'0.850683689117'
p3815
aS'0.804395198822'
p3816
aS'0.812164962292'
p3817
aS'0.924165904522'
p3818
aS'0.944740116596'
p3819
aS'0.857804477215'
p3820
aS'0.789015889168'
p3821
aS'0.792827486992'
p3822
aS'0.962163090706'
p3823
aS'0.790561556816'
p3824
aS'0.74360281229'
p3825
aS'0.74360281229'
p3826
aS'0.849340736866'
p3827
aS'0.813577353954'
p3828
aS'0.755479753017'
p3829
aS'0.755479753017'
p3830
aatp3831
a((lp3832
(lp3833
S'carnation'
p3834
aS'petunia'
p3835
aS'donkey'
p3836
aS'dog'
p3837
aS'tulip'
p3838
aS'heart'
p3839
aS'rose'
p3840
aS'Alcove'
p3841
aS'gazebo'
p3842
aS'gazebo'
p3843
aS'face'
p3844
aS'ear'
p3845
aS'tiger'
p3846
aS'kitchen'
p3847
aS'knuckle'
p3848
aS'hippopotamus'
p3849
aa(lp3850
(lp3851
S'0.807532072067'
p3852
aS'0.850460827351'
p3853
aS'0.811158001423'
p3854
aS'0.802653968334'
p3855
aS'0.803102135658'
p3856
aS'0.909090936184'
p3857
aS'0.814239382744'
p3858
aS'0.811649501324'
p3859
aS'0.928357601166'
p3860
aS'0.928357601166'
p3861
aS'0.735806465149'
p3862
aS'0.815297007561'
p3863
aS'0.815008640289'
p3864
aS'0.812110424042'
p3865
aS'0.785145699978'
p3866
aS'0.785145699978'
p3867
aatp3868
a((lp3869
(lp3870
S'drum'
p3871
aS'squirrel'
p3872
aS'Switzerland'
p3873
aS'saw'
p3874
aS'kazoo'
p3875
aS'bolts'
p3876
aS'France'
p3877
aS'Japan'
p3878
aS'chisel'
p3879
aS'ferret'
p3880
aS'protractor'
p3881
aS'piano'
p3882
aS'leopard'
p3883
aS'England'
p3884
aS'clarinet'
p3885
aS'London'
p3886
aa(lp3887
(lp3888
S'0.806198954582'
p3889
aS'0.802374780178'
p3890
aS'0.887882530689'
p3891
aS'0.793679773808'
p3892
aS'0.850066244602'
p3893
aS'0.855800151825'
p3894
aS'0.841472029686'
p3895
aS'0.900990903378'
p3896
aS'0.856563091278'
p3897
aS'0.85112965107'
p3898
aS'0.819703042507'
p3899
aS'0.808520615101'
p3900
aS'0.685609936714'
p3901
aS'0.685609936714'
p3902
aS'0.814883589745'
p3903
aS'1.0'
p3904
aatp3905
a((lp3906
(lp3907
S'shoulder'
p3908
aS'Toronto'
p3909
aS'sheep'
p3910
aS'Stockholm'
p3911
aS'wolf'
p3912
aS'foot'
p3913
aS'Miami'
p3914
aS'Bombay'
p3915
aS'aubergine'
p3916
aS'goat'
p3917
aS'Panther'
p3918
aS'zucchini'
p3919
aa(lp3920
(lp3921
S'0.741761207581'
p3922
aS'0.741761207581'
p3923
aS'0.814486324787'
p3924
aS'0.835401654243'
p3925
aS'0.813213586807'
p3926
aS'0.78371065855'
p3927
aS'0.858709156513'
p3928
aS'0.793393492699'
p3929
aS'0.987629055977'
p3930
aS'0.812822818756'
p3931
aS'0.783340513706'
p3932
aS'0.794062495232'
p3933
aatp3934
a((lp3935
(lp3936
S'finger'
p3937
aS'xylophone'
p3938
aS'monarch'
p3939
aS'elbow'
p3940
aS'larva'
p3941
aS'worm'
p3942
aS'Poplar'
p3943
aS'Willow'
p3944
aS'mango'
p3945
aS'hand'
p3946
aS'Ash'
p3947
aS'accordion'
p3948
aS'lip'
p3949
aS'eucalyptus'
p3950
aa(lp3951
(lp3952
S'0.868012666702'
p3953
aS'0.868012666702'
p3954
aS'0.786911547184'
p3955
aS'0.96024119854'
p3956
aS'0.775576114655'
p3957
aS'0.849033534527'
p3958
aS'0.800623714924'
p3959
aS'0.789686739445'
p3960
aS'0.922560036182'
p3961
aS'0.788161039352'
p3962
aS'0.794472813606'
p3963
aS'0.847877264023'
p3964
aS'0.795228004456'
p3965
aS'0.811984062195'
p3966
aatp3967
a((lp3968
(lp3969
g277
aa(lp3970
(lp3971
F0.0
aatp3972
a((lp3973
(lp3974
g277
aa(lp3975
(lp3976
F0.1
aatp3977
a((lp3978
(lp3979
g277
aa(lp3980
(lp3981
F0.2
aatp3982
a((lp3983
(lp3984
g277
aa(lp3985
(lp3986
F0.3
aatp3987
a((lp3988
(lp3989
g277
aa(lp3990
(lp3991
F0.4
aatp3992
a((lp3993
(lp3994
g277
aa(lp3995
(lp3996
F0.5
aatp3997
a((lp3998
(lp3999
g277
aa(lp4000
(lp4001
F0.6
aatp4002
a((lp4003
(lp4004
g277
aa(lp4005
(lp4006
F0.7
aatp4007
aVFOLLOWING IS DATA FOR debugNF909Z:debugRITT3W
p4008
a((lp4009
(lp4010
S'celery'
p4011
aS'Italy'
p4012
aS'Deborah'
p4013
aS'Ryan'
p4014
aS'trombone'
p4015
aS'bass'
p4016
aS'lettuce'
p4017
aS'stralia'
p4018
aS'yams'
p4019
aS'zebra'
p4020
aS'carrot'
p4021
aa(lp4022
(lp4023
S'0.878393054008'
p4024
aS'0.878393054008'
p4025
aS'0.878393054008'
p4026
aS'0.878393054008'
p4027
aS'0.878393054008'
p4028
aS'0.878393054008'
p4029
aS'0.878393054008'
p4030
aS'0.878393054008'
p4031
aS'0.847937881947'
p4032
aS'0.812764883041'
p4033
aS'0.811492800713'
p4034
aatp4035
a((lp4036
(lp4037
S'spruce'
p4038
aS'Cottonwood'
p4039
aS'Evergreen'
p4040
aS'belt'
p4041
aS'shirt'
p4042
aS'colander'
p4043
aS'spruce'
p4044
aS'marimba'
p4045
aS'cup'
p4046
aa(lp4047
(lp4048
S'0.79181009531'
p4049
aS'0.789295554161'
p4050
aS'0.789295554161'
p4051
aS'0.801004052162'
p4052
aS'0.812915146351'
p4053
aS'0.812885642052'
p4054
aS'0.791838288307'
p4055
aS'0.762383520603'
p4056
aS'0.853963375092'
p4057
aatp4058
a((lp4059
(lp4060
S'dress'
p4061
aS'Daisy'
p4062
aS'Utah'
p4063
aS'Fork'
p4064
aS'Lily'
p4065
aS'Narcissus'
p4066
aS'Arizona'
p4067
aa(lp4068
(lp4069
S'0.795542895794'
p4070
aS'0.809239506721'
p4071
aS'0.875405490398'
p4072
aS'0.81199413538'
p4073
aS'0.792416632175'
p4074
aS'0.846166968346'
p4075
aS'0.889870762825'
p4076
aatp4077
a((lp4078
(lp4079
S'Berlin'
p4080
aS'gloves'
p4081
aS'Sycamore'
p4082
aS'marimba'
p4083
aa(lp4084
(lp4085
S'0.847521901131'
p4086
aS'0.842200100422'
p4087
aS'0.800681948662'
p4088
aS'0.762396991253'
p4089
aatp4090
a((lp4091
(lp4092
S'scorpion'
p4093
aS'lip'
p4094
aS'larva'
p4095
aS'worm'
p4096
aS'Poplar'
p4097
aS'Willow'
p4098
aS'xylophone'
p4099
aa(lp4100
(lp4101
S'0.828600287437'
p4102
aS'0.788932025433'
p4103
aS'0.775577843189'
p4104
aS'0.849096953869'
p4105
aS'0.800485789776'
p4106
aS'0.789686977863'
p4107
aS'0.81495654583'
p4108
aatp4109
a((lp4110
(lp4111
S'squirrel'
p4112
aS'ferret'
p4113
aS'cat'
p4114
aS'England'
p4115
aS'Switzerland'
p4116
aS'France'
p4117
aS'kazoo'
p4118
aa(lp4119
(lp4120
S'0.801632761955'
p4121
aS'0.85096603632'
p4122
aS'1.0'
p4123
aS'0.852270781994'
p4124
aS'0.887882530689'
p4125
aS'0.841472029686'
p4126
aS'0.850070059299'
p4127
aatp4128
a((lp4129
(lp4130
S'giraffe'
p4131
aS'cool'
p4132
aS'corridor'
p4133
aS'tangelo'
p4134
aS'cow'
p4135
aS'strawberry'
p4136
aS'kiwi'
p4137
aS'guava'
p4138
aS'spatula'
p4139
aa(lp4140
(lp4141
S'0.843109667301'
p4142
aS'0.583517313004'
p4143
aS'0.849644243717'
p4144
aS'0.850493609905'
p4145
aS'0.719070315361'
p4146
aS'0.719070315361'
p4147
aS'0.850157618523'
p4148
aS'0.801814258099'
p4149
aS'0.857174575329'
p4150
aatp4151
a((lp4152
(lp4153
S'mango'
p4154
aS'Tangerine'
p4155
aS'nuts'
p4156
aS'kumquat'
p4157
aS'Philadelphia'
p4158
aS'Tokyo'
p4159
aS'Vancouver'
p4160
aS'Vermont'
p4161
aS'Hawaii'
p4162
aS'Tokyo'
p4163
aa(lp4164
(lp4165
S'0.831862151623'
p4166
aS'0.831862151623'
p4167
aS'0.831862151623'
p4168
aS'0.734437823296'
p4169
aS'0.734437823296'
p4170
aS'0.847677767277'
p4171
aS'0.840814054012'
p4172
aS'0.886682748795'
p4173
aS'0.896880745888'
p4174
aS'0.847678005695'
p4175
aatp4176
a((lp4177
(lp4178
g277
aa(lp4179
(lp4180
F0.0
aatp4181
a((lp4182
(lp4183
g277
aa(lp4184
(lp4185
F0.1
aatp4186
a((lp4187
(lp4188
g277
aa(lp4189
(lp4190
F0.2
aatp4191
a((lp4192
(lp4193
g277
aa(lp4194
(lp4195
F0.3
aatp4196
a((lp4197
(lp4198
g277
aa(lp4199
(lp4200
F0.4
aatp4201
a((lp4202
(lp4203
g277
aa(lp4204
(lp4205
F0.5
aatp4206
a((lp4207
(lp4208
g277
aa(lp4209
(lp4210
F0.6
aatp4211
a((lp4212
(lp4213
g277
aa(lp4214
(lp4215
F0.7
aatp4216
aVFOLLOWING IS DATA FOR debug63UEQR:debugAALQ9G
p4217
a((lp4218
(lp4219
S'Chrome'
p4220
aS'lug'
p4221
aS'trailer'
p4222
aS'Paris'
p4223
aS'Dallas'
p4224
aS'Montreal'
p4225
aS'Broiler'
p4226
aS'thermometer'
p4227
aS'Piccolo'
p4228
aS'tambourine'
p4229
aa(lp4230
(lp4231
S'0.620092272758'
p4232
aS'0.620092272758'
p4233
aS'0.620092272758'
p4234
aS'0.620092272758'
p4235
aS'0.690664112568'
p4236
aS'0.690664112568'
p4237
aS'0.915969967842'
p4238
aS'0.915969967842'
p4239
aS'0.890908241272'
p4240
aS'0.890908241272'
p4241
aatp4242
a((lp4243
(lp4244
S'Evergreen'
p4245
aS'harmonica'
p4246
aS'ukulele'
p4247
aS'marimba'
p4248
aS'mug'
p4249
aS'Cottonwood'
p4250
aS'jumper'
p4251
aa(lp4252
(lp4253
S'0.940997004509'
p4254
aS'0.940997004509'
p4255
aS'0.940997004509'
p4256
aS'0.940997004509'
p4257
aS'0.848457694054'
p4258
aS'0.799749076366'
p4259
aS'0.764708220959'
p4260
aatp4261
a((lp4262
(lp4263
S'bra'
p4264
aS'trousers'
p4265
aS'sweater'
p4266
aS'teak'
p4267
aS'Sycamore'
p4268
aS'Reno'
p4269
aS'Sydney'
p4270
aS'Montreal'
p4271
aa(lp4272
(lp4273
S'0.910788059235'
p4274
aS'0.910788059235'
p4275
aS'0.910788059235'
p4276
aS'0.79386484623'
p4277
aS'0.800769209862'
p4278
aS'0.714118778706'
p4279
aS'0.714118778706'
p4280
aS'0.848587334156'
p4281
aatp4282
a((lp4283
(lp4284
S'Maple'
p4285
aS'Pine'
p4286
aS'honeydew'
p4287
aS'plum'
p4288
aS'screws'
p4289
aS'wire'
p4290
aS'Hammer'
p4291
aS'watch'
p4292
aS'raspberries'
p4293
aS'trumpet'
p4294
aS'saxophone'
p4295
aS'triangle'
p4296
aa(lp4297
(lp4298
S'0.822470009327'
p4299
aS'0.822470009327'
p4300
aS'0.822470009327'
p4301
aS'0.790900826454'
p4302
aS'0.815470814705'
p4303
aS'0.815470814705'
p4304
aS'0.815470814705'
p4305
aS'0.815470814705'
p4306
aS'0.946382284164'
p4307
aS'0.905426621437'
p4308
aS'0.905426621437'
p4309
aS'0.815360367298'
p4310
aatp4311
a((lp4312
(lp4313
S'kumquat'
p4314
aS'mango'
p4315
aS'net'
p4316
aS'Philadelphia'
p4317
aS'Vancouver'
p4318
aS'Jerusalem'
p4319
aS'Tokyo'
p4320
aS'Vermont'
p4321
aS'Gloom'
p4322
aa(lp4323
(lp4324
S'0.906500518322'
p4325
aS'0.906500518322'
p4326
aS'0.906500518322'
p4327
aS'0.906500518322'
p4328
aS'0.906500518322'
p4329
aS'0.771727204323'
p4330
aS'0.771727204323'
p4331
aS'0.886575579643'
p4332
aS'0.909090936184'
p4333
aatp4334
a((lp4335
(lp4336
S'racoon'
p4337
aS'antelope'
p4338
aS'tongue'
p4339
aS'tooth'
p4340
aS'ribs'
p4341
aS'Iowa'
p4342
aS'Wisconsin'
p4343
aS'pomegranate'
p4344
aS'mango'
p4345
aa(lp4346
(lp4347
S'0.876948356628'
p4348
aS'0.876948356628'
p4349
aS'0.778660595417'
p4350
aS'0.778660595417'
p4351
aS'0.778660595417'
p4352
aS'0.872700810432'
p4353
aS'0.89729475975'
p4354
aS'0.846732139587'
p4355
aS'0.79044765234'
p4356
aatp4357
a((lp4358
(lp4359
S'Ethiopia'
p4360
aS'Australia'
p4361
aS'lettuce'
p4362
aS'Maracas'
p4363
aS'trombone'
p4364
aS'Ethiopia'
p4365
aS'Australia'
p4366
aa(lp4367
(lp4368
S'0.786526918411'
p4369
aS'0.786526918411'
p4370
aS'0.786526918411'
p4371
aS'0.822870850563'
p4372
aS'0.822870850563'
p4373
aS'0.66618090868'
p4374
aS'0.66618090868'
p4375
aatp4376
a((lp4377
(lp4378
S'lip'
p4379
aS'ankle'
p4380
aS'Poplar'
p4381
aS'Ash'
p4382
aS'accordion'
p4383
aS'xylophone'
p4384
aS'guitar'
p4385
aS'bongos'
p4386
aS'ormes'
p4387
aS'and'
p4388
aa(lp4389
(lp4390
S'0.778552234173'
p4391
aS'0.778552234173'
p4392
aS'0.806004524231'
p4393
aS'0.632057726383'
p4394
aS'0.975951910019'
p4395
aS'0.975951910019'
p4396
aS'0.975951910019'
p4397
aS'0.823002457619'
p4398
aS'0.569518268108'
p4399
aS'0.569518268108'
p4400
aatp4401
a((lp4402
(lp4403
g277
aa(lp4404
(lp4405
F0.0
aatp4406
a((lp4407
(lp4408
g277
aa(lp4409
(lp4410
F0.1
aatp4411
a((lp4412
(lp4413
g277
aa(lp4414
(lp4415
F0.2
aatp4416
a((lp4417
(lp4418
g277
aa(lp4419
(lp4420
F0.3
aatp4421
a((lp4422
(lp4423
g277
aa(lp4424
(lp4425
F0.4
aatp4426
a((lp4427
(lp4428
g277
aa(lp4429
(lp4430
F0.5
aatp4431
a((lp4432
(lp4433
g277
aa(lp4434
(lp4435
F0.6
aatp4436
a((lp4437
(lp4438
g277
aa(lp4439
(lp4440
F0.7
aatp4441
aVFOLLOWING IS DATA FOR debugEY2LWF:debug1PMZR2
p4442
a((lp4443
(lp4444
S'Evergreen'
p4445
aS'mixer'
p4446
aS'ukulele'
p4447
aS'Cottonwood'
p4448
aS'shirt'
p4449
aS'robe'
p4450
aS'blender'
p4451
aS'banjo'
p4452
aS'harmonica'
p4453
aS'Oak'
p4454
aS'spruce'
p4455
aa(lp4456
(lp4457
S'0.812653005123'
p4458
aS'0.849895596504'
p4459
aS'0.820119202137'
p4460
aS'0.799749433994'
p4461
aS'0.813185632229'
p4462
aS'0.850424349308'
p4463
aS'0.812664330006'
p4464
aS'0.800025701523'
p4465
aS'0.849661231041'
p4466
aS'0.616042137146'
p4467
aS'0.792119085789'
p4468
aatp4469
a((lp4470
(lp4471
S'hip'
p4472
aS'pelvis'
p4473
aS'stomach'
p4474
aS'arms'
p4475
aS'oven'
p4476
aS'broiler'
p4477
aS'thermometer'
p4478
aS'Paris'
p4479
aS'Montreal'
p4480
aS'Piccolo'
p4481
aS'Cuba'
p4482
aS'trumpet'
p4483
aa(lp4484
(lp4485
S'0.458422154188'
p4486
aS'0.841515421867'
p4487
aS'0.798108041286'
p4488
aS'0.80956351757'
p4489
aS'0.850260853767'
p4490
aS'0.811057984829'
p4491
aS'0.814773440361'
p4492
aS'0.856165647507'
p4493
aS'0.848587930202'
p4494
aS'0.851383447647'
p4495
aS'0.845515787601'
p4496
aS'0.839157581329'
p4497
aatp4498
a((lp4499
(lp4500
S'bolts'
p4501
aS'protractor'
p4502
aS'piano'
p4503
aS'Switzerland'
p4504
aS'cat'
p4505
aS'leopard'
p4506
aa(lp4507
(lp4508
S'0.909854650497'
p4509
aS'0.909854650497'
p4510
aS'0.822481036186'
p4511
aS'0.887882530689'
p4512
aS'0.957618653774'
p4513
aS'0.813294112682'
p4514
aatp4515
a((lp4516
(lp4517
S'pumpkin'
p4518
aS'Texas'
p4519
aS'wasp'
p4520
aS'rutabaga'
p4521
aS'chrysalis'
p4522
aS'Ginger'
p4523
aS'beetle'
p4524
aa(lp4525
(lp4526
S'0.801063656807'
p4527
aS'0.88842266798'
p4528
aS'0.846640527248'
p4529
aS'0.807885169983'
p4530
aS'0.826332330704'
p4531
aS'0.811475217342'
p4532
aS'0.85046339035'
p4533
aatp4534
a((lp4535
(lp4536
S'banana'
p4537
aS'kumquat'
p4538
aS'washer'
p4539
aS'Jerusalem'
p4540
aS'Tokyo'
p4541
aS'Hawaii'
p4542
aS'Philadelphia'
p4543
aa(lp4544
(lp4545
S'0.80977922678'
p4546
aS'0.85046094656'
p4547
aS'0.810450017452'
p4548
aS'0.850952982903'
p4549
aS'0.847591817379'
p4550
aS'0.896770596504'
p4551
aS'0.83547347784'
p4552
aatp4553
a((lp4554
(lp4555
S'scorpion'
p4556
aS'eucalyptus'
p4557
aS'Ash'
p4558
aS'xylophone'
p4559
aS'Poplar'
p4560
aS'ankle'
p4561
aS'lip'
p4562
aS'accordion'
p4563
aa(lp4564
(lp4565
S'0.828602433205'
p4566
aS'0.812020778656'
p4567
aS'0.797830224037'
p4568
aS'0.814956307411'
p4569
aS'0.800302267075'
p4570
aS'0.768756568432'
p4571
aS'0.7954236269'
p4572
aS'0.847876429558'
p4573
aatp4574
a((lp4575
(lp4576
S'knuckle'
p4577
aS'donkey'
p4578
aS'tulip'
p4579
aS'petunia'
p4580
aS'hippopotamus'
p4581
aS'dog'
p4582
aS'Rose'
p4583
aS'carnation'
p4584
aS'Barn'
p4585
aS'gazebo'
p4586
aS'face'
p4587
aa(lp4588
(lp4589
S'0.78758263588'
p4590
aS'0.789793789387'
p4591
aS'0.803101181984'
p4592
aS'0.850462317467'
p4593
aS'0.847697913647'
p4594
aS'0.803101718426'
p4595
aS'0.814238965511'
p4596
aS'0.807499706745'
p4597
aS'0.810506880283'
p4598
aS'0.83641064167'
p4599
aS'0.853274166584'
p4600
aatp4601
a((lp4602
(lp4603
S'squash'
p4604
aS'kidney'
p4605
aS'Miami'
p4606
aS'elbow'
p4607
aS'Stockholm'
p4608
aS'aubergine'
p4609
aS'Toronto'
p4610
aS'Bombay'
p4611
aS'Allen'
p4612
aa(lp4613
(lp4614
S'0.845378816128'
p4615
aS'0.788471758366'
p4616
aS'0.858709216118'
p4617
aS'0.846184372902'
p4618
aS'0.836434841156'
p4619
aS'0.987629055977'
p4620
aS'0.847587823868'
p4621
aS'0.794425666332'
p4622
aS'0.45271062851'
p4623
aatp4624
a((lp4625
(lp4626
g277
aa(lp4627
(lp4628
F0.0
aatp4629
a((lp4630
(lp4631
g277
aa(lp4632
(lp4633
F0.1
aatp4634
a((lp4635
(lp4636
g277
aa(lp4637
(lp4638
F0.2
aatp4639
a((lp4640
(lp4641
g277
aa(lp4642
(lp4643
F0.3
aatp4644
a((lp4645
(lp4646
g277
aa(lp4647
(lp4648
F0.4
aatp4649
a((lp4650
(lp4651
g277
aa(lp4652
(lp4653
F0.5
aatp4654
a((lp4655
(lp4656
g277
aa(lp4657
(lp4658
F0.6
aatp4659
a((lp4660
(lp4661
g277
aa(lp4662
(lp4663
F0.7
aatp4664
aVFOLLOWING IS DATA FOR debugTPKLST:debug503VMS
p4665
a((lp4666
(lp4667
S'Maracas'
p4668
aS'Italy'
p4669
aS'lettuce'
p4670
aS'carrot'
p4671
aS'base'
p4672
aS'Ethiopia'
p4673
aS'and'
p4674
aS'celery'
p4675
aS'Poland'
p4676
aS'trombone'
p4677
aa(lp4678
(lp4679
S'0.683069467545'
p4680
aS'0.683069467545'
p4681
aS'0.53754401207'
p4682
aS'0.53754401207'
p4683
aS'0.53754401207'
p4684
aS'0.837356805801'
p4685
aS'0.837356805801'
p4686
aS'0.857981860638'
p4687
aS'0.819863498211'
p4688
aS'0.837570726871'
p4689
aatp4690
a((lp4691
(lp4692
S'kumquat'
p4693
aS'Jerusalem'
p4694
aS'and'
p4695
aS'to'
p4696
aS'Verne'
p4697
aS'California'
p4698
aS'nectarine'
p4699
aS'ruler'
p4700
aS'washer'
p4701
aS'Tokyo'
p4702
aa(lp4703
(lp4704
S'0.797037065029'
p4705
aS'0.797037065029'
p4706
aS'0.797037065029'
p4707
aS'0.797037065029'
p4708
aS'0.797037065029'
p4709
aS'0.797037065029'
p4710
aS'0.797037065029'
p4711
aS'0.797037065029'
p4712
aS'0.797037065029'
p4713
aS'0.846555054188'
p4714
aatp4715
a((lp4716
(lp4717
S'Lobby'
p4718
aS'blouse'
p4719
aS'camisole'
p4720
aS'jacket'
p4721
aS'Cuba'
p4722
aS'Iran'
p4723
aS'spinach'
p4724
aS'closet'
p4725
aS'Egypt'
p4726
aS'garlic'
p4727
aa(lp4728
(lp4729
S'0.796387910843'
p4730
aS'0.796387910843'
p4731
aS'0.796387910843'
p4732
aS'0.796387910843'
p4733
aS'0.734490454197'
p4734
aS'0.734490454197'
p4735
aS'0.815242409706'
p4736
aS'0.780762851238'
p4737
aS'0.86563462019'
p4738
aS'0.794315338135'
p4739
aatp4740
a((lp4741
(lp4742
S'window'
p4743
aS'quarter'
p4744
aS'all'
p4745
aS'refrigerator'
p4746
aS'Mouse'
p4747
aS'kiwi'
p4748
aS'guava'
p4749
aS'strawberry'
p4750
aS'tangelo'
p4751
aS'giraffe'
p4752
aS'spatula'
p4753
aS'pot'
p4754
aS'cow'
p4755
aa(lp4756
(lp4757
S'0.777364492416'
p4758
aS'0.777364492416'
p4759
aS'0.777364492416'
p4760
aS'0.777364492416'
p4761
aS'0.777364492416'
p4762
aS'0.987629055977'
p4763
aS'0.987629055977'
p4764
aS'0.987629055977'
p4765
aS'0.987629055977'
p4766
aS'0.987629055977'
p4767
aS'0.737604379654'
p4768
aS'0.737604379654'
p4769
aS'0.807572603226'
p4770
aatp4771
a((lp4772
(lp4773
S'Carnation'
p4774
aS'petunia'
p4775
aS'tulip'
p4776
aS'knuckle'
p4777
aS'gazebo'
p4778
aS'Alcove'
p4779
aS'kitchen'
p4780
aS'hippopotamus'
p4781
aS'tiger'
p4782
aS'ear'
p4783
aS'heart'
p4784
aS'rose'
p4785
aa(lp4786
(lp4787
S'0.933695733547'
p4788
aS'0.933695733547'
p4789
aS'0.933695733547'
p4790
aS'0.933695733547'
p4791
aS'0.729582548141'
p4792
aS'0.729582548141'
p4793
aS'0.812109768391'
p4794
aS'0.735682368279'
p4795
aS'0.735682368279'
p4796
aS'0.814993619919'
p4797
aS'0.783733129501'
p4798
aS'0.814225256443'
p4799
aatp4800
a((lp4801
(lp4802
S'colander'
p4803
aS'belt'
p4804
aS'Evergreen'
p4805
aS'marimba'
p4806
aS'spruce'
p4807
aS'ukulele'
p4808
aS'jumper'
p4809
aS'Oak'
p4810
aS'banjo'
p4811
aa(lp4812
(lp4813
S'0.810647428036'
p4814
aS'0.810647428036'
p4815
aS'0.810647428036'
p4816
aS'0.810647428036'
p4817
aS'0.791983425617'
p4818
aS'0.759880185127'
p4819
aS'0.759880185127'
p4820
aS'0.78546744585'
p4821
aS'0.799461066723'
p4822
aatp4823
a((lp4824
(lp4825
S'Bongos'
p4826
aS'ankle'
p4827
aS'on'
p4828
aS'Ark'
p4829
aS'larva'
p4830
aS'cobbler'
p4831
aS'Willow'
p4832
aS'xylophone'
p4833
aa(lp4834
(lp4835
S'0.863949358463'
p4836
aS'0.863949358463'
p4837
aS'0.863949358463'
p4838
aS'0.863949358463'
p4839
aS'0.863949358463'
p4840
aS'0.863949358463'
p4841
aS'0.78968667984'
p4842
aS'0.814957439899'
p4843
aatp4844
a((lp4845
(lp4846
S'Rome'
p4847
aS'Paris'
p4848
aS'Montreal'
p4849
aS'tambourine'
p4850
aS'tuba'
p4851
aS'Piccolo'
p4852
aS'Elvis'
p4853
aS'stomach'
p4854
aa(lp4855
(lp4856
S'0.925627529621'
p4857
aS'0.925627529621'
p4858
aS'0.925627529621'
p4859
aS'0.925627529621'
p4860
aS'0.925627529621'
p4861
aS'0.925627529621'
p4862
aS'0.779192149639'
p4863
aS'0.779192149639'
p4864
aatp4865
a((lp4866
(lp4867
g277
aa(lp4868
(lp4869
F0.0
aatp4870
a((lp4871
(lp4872
g277
aa(lp4873
(lp4874
F0.1
aatp4875
a((lp4876
(lp4877
g277
aa(lp4878
(lp4879
F0.2
aatp4880
a((lp4881
(lp4882
g277
aa(lp4883
(lp4884
F0.3
aatp4885
a((lp4886
(lp4887
g277
aa(lp4888
(lp4889
F0.4
aatp4890
a((lp4891
(lp4892
g277
aa(lp4893
(lp4894
F0.5
aatp4895
a((lp4896
(lp4897
g277
aa(lp4898
(lp4899
F0.6
aatp4900
a((lp4901
(lp4902
g277
aa(lp4903
(lp4904
F0.7
aatp4905
aVFOLLOWING IS DATA FOR debugRRBNAW:debugM9FO30
p4906
a((lp4907
(lp4908
S'donkey'
p4909
aS'Barn'
p4910
aS'tiger'
p4911
aS'gazebo'
p4912
aS'face'
p4913
aS'petunia'
p4914
aS'Lily'
p4915
aS'tulip'
p4916
aS'dog'
p4917
aS'here'
p4918
aS'knuckle'
p4919
aS'Hip'
p4920
aS'Hop'
p4921
aS'Carlos'
p4922
aa(lp4923
(lp4924
S'0.833729743958'
p4925
aS'0.833729743958'
p4926
aS'0.833729743958'
p4927
aS'0.833729743958'
p4928
aS'0.874595522881'
p4929
aS'0.874595522881'
p4930
aS'0.909090936184'
p4931
aS'0.909090936184'
p4932
aS'0.676682949066'
p4933
aS'0.676682949066'
p4934
aS'0.814248681068'
p4935
aS'0.808891654015'
p4936
aS'0.808891654015'
p4937
aS'0.848141551018'
p4938
aatp4939
a((lp4940
(lp4941
S'Antelope'
p4942
aS'pomegranate'
p4943
aS'rib'
p4944
aS'monkey'
p4945
aS'tooth'
p4946
aS'lemon'
p4947
aS'tongue'
p4948
aS'Michigan'
p4949
aS'moose'
p4950
aS'Florida'
p4951
aS'Clementine'
p4952
aS'Iowa'
p4953
aS'racoon'
p4954
aa(lp4955
(lp4956
S'0.926928699017'
p4957
aS'0.926928699017'
p4958
aS'0.926928699017'
p4959
aS'0.926928699017'
p4960
aS'0.814241588116'
p4961
aS'0.794231832027'
p4962
aS'0.850059270859'
p4963
aS'0.885151207447'
p4964
aS'0.808880448341'
p4965
aS'0.909767746925'
p4966
aS'0.847346067429'
p4967
aS'0.872700810432'
p4968
aS'0.847833096981'
p4969
aatp4970
a((lp4971
(lp4972
S'Palm'
p4973
aS'Cedar'
p4974
aS'Chicago'
p4975
aS'mosquito'
p4976
aS'net'
p4977
aS'Berlin'
p4978
aS'Sydney'
p4979
aS'trousers'
p4980
aS'clove'
p4981
aa(lp4982
(lp4983
S'0.756785154343'
p4984
aS'0.756785154343'
p4985
aS'0.756785154343'
p4986
aS'0.756785154343'
p4987
aS'0.756785154343'
p4988
aS'0.847521901131'
p4989
aS'0.801031947136'
p4990
aS'0.844500184059'
p4991
aS'0.644487023354'
p4992
aatp4993
a((lp4994
(lp4995
S'Ohio'
p4996
aS'pumpkin'
p4997
aS'chrysalis'
p4998
aS'Texas'
p4999
aS'Pennsylvania'
p5000
aS'okra'
p5001
aS'mantis'
p5002
aS'rutabaga'
p5003
aS'llama'
p5004
aa(lp5005
(lp5006
S'0.728562295437'
p5007
aS'0.728562295437'
p5008
aS'0.82633382082'
p5009
aS'0.888422608376'
p5010
aS'0.886859714985'
p5011
aS'0.826113760471'
p5012
aS'0.807041287422'
p5013
aS'0.807884931564'
p5014
aS'0.811707079411'
p5015
aatp5016
a((lp5017
(lp5018
S'Paris'
p5019
aS'stomach'
p5020
aS'Montreal'
p5021
aS'mug'
p5022
aS'Rome'
p5023
aS'Dallas'
p5024
aS'hip'
p5025
aS'numbering'
p5026
aS'broiler'
p5027
aS'arms'
p5028
aS'treated'
p5029
aa(lp5030
(lp5031
S'0.752091467381'
p5032
aS'0.752091467381'
p5033
aS'0.752091467381'
p5034
aS'0.752091467381'
p5035
aS'0.856309115887'
p5036
aS'0.813362002373'
p5037
aS'0.466765940189'
p5038
aS'0.456962764263'
p5039
aS'0.811044931412'
p5040
aS'0.724732637405'
p5041
aS'0.724732637405'
p5042
aatp5043
a((lp5044
(lp5045
S'mango'
p5046
aS'Jerusalem'
p5047
aS'California'
p5048
aS'kumquat'
p5049
aS'Wisconsin'
p5050
aS'Philadelphia'
p5051
aS'nectarine'
p5052
aS'Vermont'
p5053
aS'Hawaii'
p5054
aS'Vancouver'
p5055
aS'banana'
p5056
aa(lp5057
(lp5058
S'0.786148130894'
p5059
aS'0.786148130894'
p5060
aS'0.876123070717'
p5061
aS'0.850471735001'
p5062
aS'0.896366178989'
p5063
aS'0.835591554642'
p5064
aS'0.847185790539'
p5065
aS'0.886678278446'
p5066
aS'0.897356927395'
p5067
aS'0.840782165527'
p5068
aS'0.809779345989'
p5069
aatp5070
a((lp5071
(lp5072
S'Bombay'
p5073
aS'sheep'
p5074
aS'zucchini'
p5075
aS'aubergine'
p5076
aS'Toronto'
p5077
aS'elbow'
p5078
aS'shoulder'
p5079
aS'Stockholm'
p5080
aa(lp5081
(lp5082
S'0.713124454021'
p5083
aS'0.713124454021'
p5084
aS'0.793780565262'
p5085
aS'0.993814527988'
p5086
aS'0.993814527988'
p5087
aS'0.846184253693'
p5088
aS'0.813227295876'
p5089
aS'0.835520446301'
p5090
aatp5091
a((lp5092
(lp5093
S'trombone'
p5094
aS'elephant'
p5095
aS'viola'
p5096
aS'lion'
p5097
aS'Bass'
p5098
aS'celery'
p5099
aS'Ethiopia'
p5100
aS'Poland'
p5101
aS'lettuce'
p5102
aa(lp5103
(lp5104
S'0.736864745617'
p5105
aS'0.736864745617'
p5106
aS'0.779659032822'
p5107
aS'0.909090936184'
p5108
aS'0.909090936184'
p5109
aS'0.857163012028'
p5110
aS'0.911175072193'
p5111
aS'0.820991694927'
p5112
aS'0.810230910778'
p5113
aatp5114
a((lp5115
(lp5116
g277
aa(lp5117
(lp5118
F0.0
aatp5119
a((lp5120
(lp5121
g277
aa(lp5122
(lp5123
F0.1
aatp5124
a((lp5125
(lp5126
g277
aa(lp5127
(lp5128
F0.2
aatp5129
a((lp5130
(lp5131
g277
aa(lp5132
(lp5133
F0.3
aatp5134
a((lp5135
(lp5136
g277
aa(lp5137
(lp5138
F0.4
aatp5139
a((lp5140
(lp5141
g277
aa(lp5142
(lp5143
F0.5
aatp5144
a((lp5145
(lp5146
g277
aa(lp5147
(lp5148
F0.6
aatp5149
a((lp5150
(lp5151
g277
aa(lp5152
(lp5153
F0.7
aatp5154
aVFOLLOWING IS DATA FOR debugKU7RF0:debugRRRR00
p5155
a((lp5156
(lp5157
S'mosquito'
p5158
aS'Sydney'
p5159
aS'Reno'
p5160
aS'Berlin'
p5161
aS'bra'
p5162
aS'Cedar'
p5163
aS'Sycamore'
p5164
aS'trousers'
p5165
aS'millipede'
p5166
aS'Rome'
p5167
aS'gloves'
p5168
aS'mantis'
p5169
aS'millipede'
p5170
aS'mosquito'
p5171
aS'Sydney'
p5172
aa(lp5173
(lp5174
S'0.801610529423'
p5175
aS'0.801610529423'
p5176
aS'0.801610529423'
p5177
aS'0.846503615379'
p5178
aS'0.844202518463'
p5179
aS'0.695912003517'
p5180
aS'0.80073094368'
p5181
aS'0.844499647617'
p5182
aS'0.832606673241'
p5183
aS'0.909090936184'
p5184
aS'0.842200279236'
p5185
aS'0.80699801445'
p5186
aS'0.832604050636'
p5187
aS'0.805299460888'
p5188
aS'0.800535261631'
p5189
aatp5190
a((lp5191
(lp5192
S'Vermont'
p5193
aS'Chicago'
p5194
aS'California'
p5195
aS'Wisconsin'
p5196
aS'Tokyo'
p5197
aS'kumquat'
p5198
aS'mango'
p5199
aS'nectarine'
p5200
aS'glue'
p5201
aS'ruler'
p5202
aS'Vermont'
p5203
aa(lp5204
(lp5205
S'0.886682748795'
p5206
aS'0.850348949432'
p5207
aS'0.876239836216'
p5208
aS'0.897292017937'
p5209
aS'0.847611546516'
p5210
aS'0.850476622581'
p5211
aS'0.791261613369'
p5212
aS'0.847185790539'
p5213
aS'0.787980377674'
p5214
aS'0.849303781986'
p5215
aS'0.886684834957'
p5216
aatp5217
a((lp5218
(lp5219
S'underwear'
p5220
aS'pants'
p5221
aS'dress'
p5222
aS'knife'
p5223
aS'Fork'
p5224
aS'girdle'
p5225
aS'skillet'
p5226
aS'Daisy'
p5227
aS'sunflower'
p5228
aS'Utah'
p5229
aS'Vermont'
p5230
aS'Utah'
p5231
aS'Maine'
p5232
aS'Arizona'
p5233
aa(lp5234
(lp5235
S'0.935150742531'
p5236
aS'0.935150742531'
p5237
aS'0.771063745022'
p5238
aS'0.8409704566'
p5239
aS'0.973250627518'
p5240
aS'0.973250627518'
p5241
aS'0.973250627518'
p5242
aS'0.809301018715'
p5243
aS'0.845875203609'
p5244
aS'0.845875203609'
p5245
aS'0.680202722549'
p5246
aS'0.680202722549'
p5247
aS'0.680202722549'
p5248
aS'0.889870762825'
p5249
aatp5250
a((lp5251
(lp5252
S'saw'
p5253
aS'shano'
p5254
aS'Switzerland'
p5255
aS'protractor'
p5256
aS'kazoo'
p5257
aS'squirrel'
p5258
aS'piano'
p5259
aS'France'
p5260
aS'England'
p5261
aS'Japan'
p5262
aS'clarinet'
p5263
aS'bolts'
p5264
aS'chisel'
p5265
aa(lp5266
(lp5267
S'0.717357099056'
p5268
aS'0.717357099056'
p5269
aS'0.887913703918'
p5270
aS'0.864687561989'
p5271
aS'0.864687561989'
p5272
aS'0.846635103226'
p5273
aS'0.818770051003'
p5274
aS'0.824877083302'
p5275
aS'0.852564454079'
p5276
aS'0.900990664959'
p5277
aS'0.831223487854'
p5278
aS'0.853665888309'
p5279
aS'0.856562435627'
p5280
aatp5281
a((lp5282
(lp5283
S'Oak'
p5284
aS'Cottonwood'
p5285
aS'Evergreen'
p5286
aS'spruce'
p5287
aS'colander'
p5288
aS'belt'
p5289
aS'robe'
p5290
aS'banjo'
p5291
aS'harmonica'
p5292
aS'blender'
p5293
aS'mixer'
p5294
aS'cup'
p5295
aa(lp5296
(lp5297
S'0.785360336304'
p5298
aS'0.79974925518'
p5299
aS'0.851564049721'
p5300
aS'0.851564049721'
p5301
aS'0.813812494278'
p5302
aS'0.78208142519'
p5303
aS'0.844266295433'
p5304
aS'0.800024926662'
p5305
aS'0.812111675739'
p5306
aS'0.938711285591'
p5307
aS'0.938711285591'
p5308
aS'0.854152858257'
p5309
aatp5310
a((lp5311
(lp5312
S'Florida'
p5313
aS'Kansas'
p5314
aS'Michigan'
p5315
aS'Iowa'
p5316
aS'monkey'
p5317
aS'lemon'
p5318
aS'truth'
p5319
aS'tongue'
p5320
aS'pancreas'
p5321
aS'pomegranate'
p5322
aS'Clementine'
p5323
aa(lp5324
(lp5325
S'0.909767746925'
p5326
aS'0.847961843014'
p5327
aS'0.877457737923'
p5328
aS'0.877457737923'
p5329
aS'0.877457737923'
p5330
aS'0.877457737923'
p5331
aS'0.519034087658'
p5332
aS'0.850477159023'
p5333
aS'0.78353959322'
p5334
aS'0.847917199135'
p5335
aS'0.847345709801'
p5336
aatp5337
a((lp5338
(lp5339
S'wolf'
p5340
aS'foot'
p5341
aS'Panther'
p5342
aS'Stockholm'
p5343
aS'Bombay'
p5344
aS'zucchini'
p5345
aS'squash'
p5346
aS'Pershing'
p5347
aS'kidney'
p5348
aS'goat'
p5349
aS'sheep'
p5350
aa(lp5351
(lp5352
S'0.814710140228'
p5353
aS'0.814710140228'
p5354
aS'0.814710140228'
p5355
aS'0.885989189148'
p5356
aS'0.885989189148'
p5357
aS'0.984650492668'
p5358
aS'0.984650492668'
p5359
aS'0.552073895931'
p5360
aS'0.633642435074'
p5361
aS'0.905222415924'
p5362
aS'0.905222415924'
p5363
aatp5364
a((lp5365
(lp5366
S'wasp'
p5367
aS'rutabaga'
p5368
aS'okra'
p5369
aS'pumpkin'
p5370
aS'Texas'
p5371
aS'rhino'
p5372
aS'beetle'
p5373
aS'Pennsylvania'
p5374
aS'Alaska'
p5375
aS'Ohio'
p5376
aS'wasp'
p5377
aa(lp5378
(lp5379
S'0.846355617046'
p5380
aS'0.807885169983'
p5381
aS'0.826114416122'
p5382
aS'0.801091313362'
p5383
aS'0.920543909073'
p5384
aS'0.920543909073'
p5385
aS'0.920543909073'
p5386
aS'0.886869370937'
p5387
aS'0.905400812626'
p5388
aS'0.90669208765'
p5389
aS'0.846607089043'
p5390
aatp5391
a((lp5392
(lp5393
g277
aa(lp5394
(lp5395
F0.0
aatp5396
a((lp5397
(lp5398
g277
aa(lp5399
(lp5400
F0.1
aatp5401
a((lp5402
(lp5403
g277
aa(lp5404
(lp5405
F0.2
aatp5406
a((lp5407
(lp5408
g277
aa(lp5409
(lp5410
F0.3
aatp5411
a((lp5412
(lp5413
g277
aa(lp5414
(lp5415
F0.4
aatp5416
a((lp5417
(lp5418
g277
aa(lp5419
(lp5420
F0.5
aatp5421
a((lp5422
(lp5423
g277
aa(lp5424
(lp5425
F0.6
aatp5426
a((lp5427
(lp5428
g277
aa(lp5429
(lp5430
F0.7
aatp5431
aVFOLLOWING IS DATA FOR debug9SX3WY:debug04DLKW
p5432
a((lp5433
(lp5434
S'chisel'
p5435
aS'squirrel'
p5436
aS'lahren'
p5437
aS'at'
p5438
aS'Switzerland'
p5439
aS'Japan'
p5440
aS'England'
p5441
aS'drum'
p5442
aS'kazoo'
p5443
aS'saw'
p5444
aS'kangaroo'
p5445
aS'squirrel'
p5446
aa(lp5447
(lp5448
S'0.771195411682'
p5449
aS'0.771195411682'
p5450
aS'0.771195411682'
p5451
aS'0.771195411682'
p5452
aS'0.771195411682'
p5453
aS'0.771195411682'
p5454
aS'0.771195411682'
p5455
aS'0.771195411682'
p5456
aS'0.842261791229'
p5457
aS'0.793661177158'
p5458
aS'0.982624828815'
p5459
aS'0.801446318626'
p5460
aatp5461
a((lp5462
(lp5463
S'Miami'
p5464
aS'always'
p5465
aS'aubergine'
p5466
aS'Sue'
p5467
aS'Keeney'
p5468
aS'squash'
p5469
aS'Stockholm'
p5470
aS'Jaguar'
p5471
aS'Bombay'
p5472
aS'Switzerland'
p5473
aS'Panther'
p5474
aa(lp5475
(lp5476
S'0.812409520149'
p5477
aS'0.812409520149'
p5478
aS'0.812409520149'
p5479
aS'0.812409520149'
p5480
aS'0.812409520149'
p5481
aS'0.812409520149'
p5482
aS'0.812409520149'
p5483
aS'0.812409520149'
p5484
aS'0.791812837124'
p5485
aS'0.887883245945'
p5486
aS'0.783344626427'
p5487
aatp5488
a((lp5489
(lp5490
S'Corridor'
p5491
aS'Hall'
p5492
aS'glass'
p5493
aS'window'
p5494
aS'Angelo'
p5495
aS'guava'
p5496
aS'kiwi'
p5497
aS'actually'
p5498
aS'Mouse'
p5499
aS'giraffe'
p5500
aS'refrigerator'
p5501
aS'horse'
p5502
aa(lp5503
(lp5504
S'0.804206252098'
p5505
aS'0.804206252098'
p5506
aS'0.804206252098'
p5507
aS'0.804206252098'
p5508
aS'0.804206252098'
p5509
aS'0.804206252098'
p5510
aS'0.804206252098'
p5511
aS'0.804206252098'
p5512
aS'0.804206252098'
p5513
aS'0.804206252098'
p5514
aS'0.847150623798'
p5515
aS'0.813746511936'
p5516
aatp5517
a((lp5518
(lp5519
S'griddle'
p5520
aS'carpet'
p5521
aS'foundation'
p5522
aS'for'
p5523
aS'Dahlia'
p5524
aS'on'
p5525
aS'the'
p5526
aS'way'
p5527
aS'our'
p5528
aS'onion'
p5529
aS'broccoli'
p5530
aS'dish'
p5531
aS'buttercup'
p5532
aS'strainer'
p5533
aS'saucer'
p5534
aS'elevator'
p5535
aa(lp5536
(lp5537
S'0.812164306641'
p5538
aS'0.876071929932'
p5539
aS'0.876071929932'
p5540
aS'0.876071929932'
p5541
aS'0.876071929932'
p5542
aS'0.876071929932'
p5543
aS'0.876071929932'
p5544
aS'0.876071929932'
p5545
aS'0.876071929932'
p5546
aS'0.876071929932'
p5547
aS'0.876071929932'
p5548
aS'0.804395198822'
p5549
aS'0.8490639925'
p5550
aS'0.849340975285'
p5551
aS'0.807572007179'
p5552
aS'0.849374055862'
p5553
aatp5554
a((lp5555
(lp5556
S'rutabaga'
p5557
aS'Texas'
p5558
aS'Ohio'
p5559
aS'termite'
p5560
aS'Alaska'
p5561
aS'okra'
p5562
aS'rhinoceros'
p5563
aS'Ginger'
p5564
aS'Pennsylvania'
p5565
aS'chrysalis'
p5566
aa(lp5567
(lp5568
S'0.90010279417'
p5569
aS'0.90010279417'
p5570
aS'0.90010279417'
p5571
aS'0.90010279417'
p5572
aS'0.90010279417'
p5573
aS'0.826114237309'
p5574
aS'0.827000379562'
p5575
aS'0.811385214329'
p5576
aS'0.886857926846'
p5577
aS'0.826332569122'
p5578
aatp5579
a((lp5580
(lp5581
S'griddle'
p5582
aS'Daisy'
p5583
aS'Skillet'
p5584
aS'dress'
p5585
aS'pants'
p5586
aS'sunflower'
p5587
aS'toaster'
p5588
aS'or'
p5589
aS'nice'
p5590
aS'Utah'
p5591
aS'Alaska'
p5592
aS'Maine'
p5593
aS'Narcissus'
p5594
aa(lp5595
(lp5596
S'0.847463130951'
p5597
aS'0.847463130951'
p5598
aS'0.847463130951'
p5599
aS'0.847463130951'
p5600
aS'0.847463130951'
p5601
aS'0.847463130951'
p5602
aS'0.847463130951'
p5603
aS'0.847463130951'
p5604
aS'0.847463130951'
p5605
aS'0.847463130951'
p5606
aS'0.847463130951'
p5607
aS'0.847463130951'
p5608
aS'0.848947823048'
p5609
aatp5610
a((lp5611
(lp5612
S'worm'
p5613
aS'larvae'
p5614
aS'eucalyptus'
p5615
aS'Willow'
p5616
aS'Ash'
p5617
aS'die'
p5618
aS'with'
p5619
aS'bone'
p5620
aS'Bongo'
p5621
aS'ankle'
p5622
aS'finger'
p5623
aS'hand'
p5624
aS'lips'
p5625
aS'Monarch'
p5626
aS'bar'
p5627
aa(lp5628
(lp5629
S'0.924886822701'
p5630
aS'0.924886822701'
p5631
aS'0.924886822701'
p5632
aS'0.924886822701'
p5633
aS'0.924886822701'
p5634
aS'0.924886822701'
p5635
aS'0.924886822701'
p5636
aS'0.924886822701'
p5637
aS'0.924886822701'
p5638
aS'0.768757343292'
p5639
aS'0.916703760624'
p5640
aS'0.916703760624'
p5641
aS'0.916703760624'
p5642
aS'0.909090936184'
p5643
aS'0.909090936184'
p5644
aatp5645
a((lp5646
(lp5647
S'moose'
p5648
aS'antelope'
p5649
aS'Ohio'
p5650
aS'Florida'
p5651
aS'Michigan'
p5652
aS'raccoon'
p5653
aS'Antelope'
p5654
aS'rib'
p5655
aS'tongue'
p5656
aS'pancreas'
p5657
aS'lemon'
p5658
aS'hair'
p5659
aS'pomegranate'
p5660
aS'Clementine'
p5661
aS'Iowa'
p5662
aa(lp5663
(lp5664
S'0.79170191288'
p5665
aS'0.79170191288'
p5666
aS'0.849067926407'
p5667
aS'0.849067926407'
p5668
aS'0.909090936184'
p5669
aS'0.909090936184'
p5670
aS'0.757462978363'
p5671
aS'0.757462978363'
p5672
aS'0.850664615631'
p5673
aS'0.846185684204'
p5674
aS'0.660576939583'
p5675
aS'0.660576939583'
p5676
aS'0.847917735577'
p5677
aS'0.847345709801'
p5678
aS'0.872701406479'
p5679
aatp5680
a((lp5681
(lp5682
g277
aa(lp5683
(lp5684
F0.0
aatp5685
a((lp5686
(lp5687
g277
aa(lp5688
(lp5689
F0.1
aatp5690
a((lp5691
(lp5692
g277
aa(lp5693
(lp5694
F0.2
aatp5695
a((lp5696
(lp5697
g277
aa(lp5698
(lp5699
F0.3
aatp5700
a((lp5701
(lp5702
g277
aa(lp5703
(lp5704
F0.4
aatp5705
a((lp5706
(lp5707
g277
aa(lp5708
(lp5709
F0.5
aatp5710
a((lp5711
(lp5712
g277
aa(lp5713
(lp5714
F0.6
aatp5715
a((lp5716
(lp5717
g277
aa(lp5718
(lp5719
F0.7
aatp5720
aVFOLLOWING IS DATA FOR debug9ZTC3N:debugPE34MP
p5721
a((lp5722
(lp5723
S'acticoat'
p5724
aS'garlic'
p5725
aS'chimney'
p5726
aS'Germany'
p5727
aS'furnace'
p5728
aS'potato'
p5729
aS'spinach'
p5730
aS'Egypt'
p5731
aa(lp5732
(lp5733
S'0.775689125061'
p5734
aS'0.775689125061'
p5735
aS'0.775689125061'
p5736
aS'0.775689125061'
p5737
aS'0.789412915707'
p5738
aS'0.874659061432'
p5739
aS'0.874659061432'
p5740
aS'0.865637600422'
p5741
aatp5742
a((lp5743
(lp5744
S'Rome'
p5745
aS'Paris'
p5746
aS'alarm'
p5747
aS'Broiler'
p5748
aS'stomach'
p5749
aS'thermometer'
p5750
aS'Piccolo'
p5751
aS'mug'
p5752
aa(lp5753
(lp5754
S'0.745484948158'
p5755
aS'0.745484948158'
p5756
aS'0.624682188034'
p5757
aS'0.715090632439'
p5758
aS'0.715090632439'
p5759
aS'0.827619194984'
p5760
aS'0.853257358074'
p5761
aS'0.846395552158'
p5762
aatp5763
a((lp5764
(lp5765
S'Corridor'
p5766
aS'spatula'
p5767
aS'Hollow'
p5768
aS'horse'
p5769
aS'Mouse'
p5770
aS'glass'
p5771
aS'guava'
p5772
aS'refrigerator'
p5773
aa(lp5774
(lp5775
S'0.902980804443'
p5776
aS'0.902980804443'
p5777
aS'0.902980804443'
p5778
aS'0.902980804443'
p5779
aS'0.764557301998'
p5780
aS'0.788438022137'
p5781
aS'0.802308738232'
p5782
aS'0.847158908844'
p5783
aatp5784
a((lp5785
(lp5786
S'Myron'
p5787
aS'Myron'
p5788
aS'B'
p5789
aS'ecoly'
p5790
aS'Brinks'
p5791
aS'Cottonwood'
p5792
aS'Oak'
p5793
aS'Evergreen'
p5794
aa(lp5795
(lp5796
S'0.759269177914'
p5797
aS'0.759269177914'
p5798
aS'0.759269177914'
p5799
aS'0.909090936184'
p5800
aS'0.794951379299'
p5801
aS'0.794951379299'
p5802
aS'0.794951379299'
p5803
aS'0.812649428844'
p5804
aatp5805
a((lp5806
(lp5807
S'Poland'
p5808
aS'yams'
p5809
aS'viola'
p5810
aS'elephant'
p5811
aS'Australia'
p5812
aS'maracas'
p5813
aS'lettuce'
p5814
aS'carrot'
p5815
aS'trombone'
p5816
aS'Italy'
p5817
aS'lion'
p5818
aa(lp5819
(lp5820
S'0.873607635498'
p5821
aS'0.873607635498'
p5822
aS'0.781717598438'
p5823
aS'0.772996664047'
p5824
aS'0.772996664047'
p5825
aS'0.814285576344'
p5826
aS'0.810230195522'
p5827
aS'0.811145663261'
p5828
aS'0.837570726871'
p5829
aS'0.877268493176'
p5830
aS'0.801478564739'
p5831
aatp5832
a((lp5833
(lp5834
S'kidney'
p5835
aS'squash'
p5836
aS'cheap'
p5837
aS'Toronto'
p5838
aS'bearing'
p5839
aS'zucchini'
p5840
aS'elbow'
p5841
aS'shoulder'
p5842
aS'Stockholm'
p5843
aS'Miami'
p5844
aa(lp5845
(lp5846
S'0.808828651905'
p5847
aS'0.909090936184'
p5848
aS'0.909090936184'
p5849
aS'0.847628712654'
p5850
aS'0.520286679268'
p5851
aS'0.794064104557'
p5852
aS'0.832857608795'
p5853
aS'0.832857608795'
p5854
aS'0.835378408432'
p5855
aS'0.85856461525'
p5856
aatp5857
a((lp5858
(lp5859
S'sweater'
p5860
aS'Sydney'
p5861
aS'Sycamore'
p5862
aS'lily'
p5863
aS'pad'
p5864
aa(lp5865
(lp5866
S'0.721043586731'
p5867
aS'0.721043586731'
p5868
aS'0.964309930801'
p5869
aS'0.909090936184'
p5870
aS'0.909090936184'
p5871
aatp5872
a((lp5873
(lp5874
S'Lily'
p5875
aS'Maine'
p5876
aS'towns'
p5877
aS'9'
p5878
aS'Arizona'
p5879
aS'sunflower'
p5880
aS'underwear'
p5881
aS'narcissist'
p5882
aS'pants'
p5883
aS'skillet'
p5884
aS'Utah'
p5885
aS'Daisy'
p5886
aS'dress'
p5887
aS'Fork'
p5888
aS'sunflower'
p5889
aa(lp5890
(lp5891
S'0.574861764908'
p5892
aS'0.816135883331'
p5893
aS'0.816135883331'
p5894
aS'0.816135883331'
p5895
aS'0.816135883331'
p5896
aS'0.816135883331'
p5897
aS'0.816135883331'
p5898
aS'0.816135883331'
p5899
aS'0.56954228878'
p5900
aS'0.84972012043'
p5901
aS'0.875385761261'
p5902
aS'0.833214402199'
p5903
aS'0.833214402199'
p5904
aS'0.81199413538'
p5905
aS'0.80175369978'
p5906
aatp5907
a((lp5908
(lp5909
g277
aa(lp5910
(lp5911
F0.0
aatp5912
a((lp5913
(lp5914
g277
aa(lp5915
(lp5916
F0.1
aatp5917
a((lp5918
(lp5919
g277
aa(lp5920
(lp5921
F0.2
aatp5922
a((lp5923
(lp5924
g277
aa(lp5925
(lp5926
F0.3
aatp5927
a((lp5928
(lp5929
g277
aa(lp5930
(lp5931
F0.4
aatp5932
a((lp5933
(lp5934
g277
aa(lp5935
(lp5936
F0.5
aatp5937
a((lp5938
(lp5939
g277
aa(lp5940
(lp5941
F0.6
aatp5942
a((lp5943
(lp5944
g277
aa(lp5945
(lp5946
F0.7
aatp5947
aVFOLLOWING IS DATA FOR debugZ39CK8:debugGKMQ4X
p5948
a((lp5949
(lp5950
S'scorpion'
p5951
aS'hand'
p5952
aS'guitar'
p5953
aS'accordion'
p5954
aS'eucalyptus'
p5955
aS'monarch'
p5956
aS'Willow'
p5957
aS'worm'
p5958
aS'ankle'
p5959
aS'bongos'
p5960
aS'Ash'
p5961
aa(lp5962
(lp5963
S'0.828603863716'
p5964
aS'0.836443662643'
p5965
aS'0.836443662643'
p5966
aS'0.847877383232'
p5967
aS'0.811990916729'
p5968
aS'0.786911606789'
p5969
aS'0.719889163971'
p5970
aS'0.719889163971'
p5971
aS'0.770774185658'
p5972
aS'0.987629055977'
p5973
aS'0.79120850563'
p5974
aatp5975
a((lp5976
(lp5977
S'ferret'
p5978
aS'bolts'
p5979
aS'chisel'
p5980
aS'Japan'
p5981
aS'England'
p5982
aS'France'
p5983
aS'Switzerland'
p5984
aS'leopard'
p5985
aS'cat'
p5986
aS'kazoo'
p5987
aa(lp5988
(lp5989
S'0.848855912685'
p5990
aS'0.853525102139'
p5991
aS'0.856563329697'
p5992
aS'0.900991082191'
p5993
aS'0.852271974087'
p5994
aS'0.841472029686'
p5995
aS'0.887882530689'
p5996
aS'0.813295304775'
p5997
aS'1.0'
p5998
aS'0.850066244602'
p5999
aatp6000
a((lp6001
(lp6002
S'Rose'
p6003
aS'tiger'
p6004
aS'heart'
p6005
aS'petunia'
p6006
aS'kitchen'
p6007
aS'dog'
p6008
aS'donkey'
p6009
aS'Barn'
p6010
aS'Alcove'
p6011
aS'hippopotamus'
p6012
aS'Bass'
p6013
aS'ear'
p6014
aS'carnation'
p6015
aa(lp6016
(lp6017
S'0.814239442348'
p6018
aS'0.815017461777'
p6019
aS'0.645847797394'
p6020
aS'0.850462555885'
p6021
aS'0.812110722065'
p6022
aS'0.80406409502'
p6023
aS'0.811135709286'
p6024
aS'0.813038110733'
p6025
aS'0.811649441719'
p6026
aS'0.84754961729'
p6027
aS'0.769473254681'
p6028
aS'0.815283477306'
p6029
aS'0.807532250881'
p6030
aatp6031
a((lp6032
(lp6033
S'trumpet'
p6034
aS'hip'
p6035
aS'pelvis'
p6036
aS'arms'
p6037
aS'Montreal'
p6038
aS'Paris'
p6039
aS'Rome'
p6040
aS'Dallas'
p6041
aS'Piccolo'
p6042
aS'tuba'
p6043
aS'knuckles'
p6044
aa(lp6045
(lp6046
S'0.839157402515'
p6047
aS'0.646649360657'
p6048
aS'0.842001318932'
p6049
aS'0.809245586395'
p6050
aS'0.848587155342'
p6051
aS'0.853116571903'
p6052
aS'0.856307327747'
p6053
aS'0.777016341686'
p6054
aS'0.851383328438'
p6055
aS'0.767996788025'
p6056
aS'0.91722625494'
p6057
aatp6058
a((lp6059
(lp6060
S'strainer'
p6061
aS'pickle'
p6062
aS'broccoli'
p6063
aS'saucer'
p6064
aS'dish'
p6065
aS'Foundation'
p6066
aS'log'
p6067
aS'carpet'
p6068
aS'elevator'
p6069
aS'buttercup'
p6070
aS'Azalea'
p6071
aS'Dahlia'
p6072
aa(lp6073
(lp6074
S'0.849340796471'
p6075
aS'0.808911502361'
p6076
aS'0.84689861536'
p6077
aS'0.807791829109'
p6078
aS'0.804395198822'
p6079
aS'0.850683569908'
p6080
aS'0.790503561497'
p6081
aS'0.813705086708'
p6082
aS'0.849373757839'
p6083
aS'0.849064409733'
p6084
aS'0.844539582729'
p6085
aS'0.857804477215'
p6086
aatp6087
a((lp6088
(lp6089
S'shirt'
p6090
aS'robe'
p6091
aS'belt'
p6092
aS'jumper'
p6093
aS'cup'
p6094
aS'colander'
p6095
aS'Cottonwood'
p6096
aS'spruce'
p6097
aS'banjo'
p6098
aS'harmonica'
p6099
aS'marimba'
p6100
aa(lp6101
(lp6102
S'0.812905132771'
p6103
aS'0.851154923439'
p6104
aS'0.78666728735'
p6105
aS'0.764710903168'
p6106
aS'0.853497922421'
p6107
aS'0.812885642052'
p6108
aS'0.799810290337'
p6109
aS'0.791964948177'
p6110
aS'0.800026535988'
p6111
aS'0.812111079693'
p6112
aS'0.762396097183'
p6113
aatp6114
a((lp6115
(lp6116
S'Mouse'
p6117
aS'horse'
p6118
aS'cow'
p6119
aS'refrigerator'
p6120
aS'glass'
p6121
aS'spatula'
p6122
aS'call'
p6123
aS'corridor'
p6124
aS'door'
p6125
aS'window'
p6126
aS'kiwi'
p6127
aS'tangelo'
p6128
aa(lp6129
(lp6130
S'0.764308333397'
p6131
aS'0.813746392727'
p6132
aS'0.808001458645'
p6133
aS'0.847150981426'
p6134
aS'0.788434028625'
p6135
aS'0.857387065887'
p6136
aS'0.878064274788'
p6137
aS'0.849639773369'
p6138
aS'0.810269713402'
p6139
aS'0.810096561909'
p6140
aS'0.850157856941'
p6141
aS'0.850493550301'
p6142
aatp6143
a((lp6144
(lp6145
S'aubergine'
p6146
aS'squash'
p6147
aS'zucchini'
p6148
aS'olive'
p6149
aS'foot'
p6150
aS'shoulder'
p6151
aS'Miami'
p6152
aS'Toronto'
p6153
aS'Stockholm'
p6154
aa(lp6155
(lp6156
S'0.987629055977'
p6157
aS'0.845378816128'
p6158
aS'0.794058382511'
p6159
aS'0.698809027672'
p6160
aS'0.802478194237'
p6161
aS'0.813230931759'
p6162
aS'0.858458518982'
p6163
aS'0.847675800323'
p6164
aS'0.835570216179'
p6165
aatp6166
a((lp6167
(lp6168
g277
aa(lp6169
(lp6170
F0.0
aatp6171
a((lp6172
(lp6173
g277
aa(lp6174
(lp6175
F0.1
aatp6176
a((lp6177
(lp6178
g277
aa(lp6179
(lp6180
F0.2
aatp6181
a((lp6182
(lp6183
g277
aa(lp6184
(lp6185
F0.3
aatp6186
a((lp6187
(lp6188
g277
aa(lp6189
(lp6190
F0.4
aatp6191
a((lp6192
(lp6193
g277
aa(lp6194
(lp6195
F0.5
aatp6196
a((lp6197
(lp6198
g277
aa(lp6199
(lp6200
F0.6
aatp6201
a((lp6202
(lp6203
g277
aa(lp6204
(lp6205
F0.7
aatp6206
aVFOLLOWING IS DATA FOR debug7N3YDC:debugZU2H5M
p6207
a((lp6208
(lp6209
S'rhinoceros'
p6210
aS'beetle'
p6211
aS'Texas'
p6212
aS'okra'
p6213
aS'pumpkin'
p6214
aS'Pennsylvania'
p6215
aS'Craigslist'
p6216
aS'Beetle'
p6217
aS'Rebecca'
p6218
aS'Alaska'
p6219
aS'guava'
p6220
aa(lp6221
(lp6222
S'0.80897051096'
p6223
aS'0.80897051096'
p6224
aS'0.80897051096'
p6225
aS'0.80897051096'
p6226
aS'0.80897051096'
p6227
aS'0.80897051096'
p6228
aS'0.80897051096'
p6229
aS'0.909090936184'
p6230
aS'0.909090936184'
p6231
aS'0.905398070812'
p6232
aS'0.285209774971'
p6233
aatp6234
a((lp6235
(lp6236
S'piano'
p6237
aS'drum'
p6238
aS'England'
p6239
aS'France'
p6240
aS'his'
p6241
aS'new'
p6242
aS'shoes'
p6243
aS'all'
p6244
aS'Hammer'
p6245
aS'protractor'
p6246
aS'squirrel'
p6247
aS'ferret'
p6248
aS'cat'
p6249
aS'Switzerland'
p6250
aa(lp6251
(lp6252
S'0.894626915455'
p6253
aS'0.894626915455'
p6254
aS'0.894626915455'
p6255
aS'0.894626915455'
p6256
aS'0.894626915455'
p6257
aS'0.894626915455'
p6258
aS'0.894626915455'
p6259
aS'0.894626915455'
p6260
aS'0.910375237465'
p6261
aS'0.910375237465'
p6262
aS'0.805092155933'
p6263
aS'0.805092155933'
p6264
aS'0.957387804985'
p6265
aS'0.887882769108'
p6266
aatp6267
a((lp6268
(lp6269
S'Foundation'
p6270
aS'elevator'
p6271
aS'carpet'
p6272
aS'floor'
p6273
aS'riddle'
p6274
aS'cauliflower'
p6275
aS'onion'
p6276
aS'and'
p6277
aS'Celia'
p6278
aS'Delilah'
p6279
aS'skillet'
p6280
aS'elephant'
p6281
aS'saucer'
p6282
aa(lp6283
(lp6284
S'0.66997730732'
p6285
aS'0.66997730732'
p6286
aS'0.66997730732'
p6287
aS'0.66997730732'
p6288
aS'0.66997730732'
p6289
aS'0.66997730732'
p6290
aS'0.66997730732'
p6291
aS'0.66997730732'
p6292
aS'0.66997730732'
p6293
aS'0.66997730732'
p6294
aS'0.849720060825'
p6295
aS'0.553809225559'
p6296
aS'0.807297885418'
p6297
aatp6298
a((lp6299
(lp6300
S'pancreas'
p6301
aS'raccoon'
p6302
aS'to'
p6303
aS'tongue'
p6304
aS'rib'
p6305
aS'Florida'
p6306
aS'Iowa'
p6307
aS'Kansas'
p6308
aS'Michigan'
p6309
aS'pomegranate'
p6310
aS'lemon'
p6311
aS'monkey'
p6312
aS'antelope'
p6313
aS'moose'
p6314
aa(lp6315
(lp6316
S'0.857810080051'
p6317
aS'0.857810080051'
p6318
aS'0.857810080051'
p6319
aS'0.857810080051'
p6320
aS'0.831525802612'
p6321
aS'0.831525802612'
p6322
aS'0.831525802612'
p6323
aS'0.831525802612'
p6324
aS'0.831525802612'
p6325
aS'0.831525802612'
p6326
aS'0.794229745865'
p6327
aS'0.771045506001'
p6328
aS'0.791743218899'
p6329
aS'0.809186756611'
p6330
aatp6331
a((lp6332
(lp6333
S'washer'
p6334
aS'nuts'
p6335
aS'glue'
p6336
aS'Tokyo'
p6337
aS'Philadelphia'
p6338
aS'Vancouver'
p6339
aS'Vermont'
p6340
aS'Wisconsin'
p6341
aS'kumquat'
p6342
aS'mango'
p6343
aS'banana'
p6344
aS'Jerusalem'
p6345
aS'Vancouver'
p6346
aS'nectarine'
p6347
aa(lp6348
(lp6349
S'0.788784921169'
p6350
aS'0.788784921169'
p6351
aS'0.788784921169'
p6352
aS'0.788784921169'
p6353
aS'0.788784921169'
p6354
aS'0.788784921169'
p6355
aS'0.788784921169'
p6356
aS'0.788784921169'
p6357
aS'0.788784921169'
p6358
aS'0.917274534702'
p6359
aS'0.917274534702'
p6360
aS'0.850952982903'
p6361
aS'0.84081351757'
p6362
aS'0.847182571888'
p6363
aatp6364
a((lp6365
(lp6366
S'Pig'
p6367
aS'lion'
p6368
aS'elephant'
p6369
aS'lettuce'
p6370
aS'yams'
p6371
aS'Poland'
p6372
aS'Italy'
p6373
aS'carrot'
p6374
aS'Australia'
p6375
aS'zebra'
p6376
aa(lp6377
(lp6378
S'0.798962950706'
p6379
aS'0.798962950706'
p6380
aS'0.798962950706'
p6381
aS'0.798962950706'
p6382
aS'0.798962950706'
p6383
aS'0.798962950706'
p6384
aS'0.798962950706'
p6385
aS'0.793419837952'
p6386
aS'0.90087556839'
p6387
aS'0.812765002251'
p6388
aatp6389
a((lp6390
(lp6391
S'Carnation'
p6392
aS'Rose'
p6393
aS'tulip'
p6394
aS'Don'
p6395
aS'key'
p6396
aS'if'
p6397
aS'a'
p6398
aS'potamus'
p6399
aS'Zevo'
p6400
aS'kitchen'
p6401
aS'Alcove'
p6402
aS'year'
p6403
aS'face'
p6404
aS'heart'
p6405
aS'knuckle'
p6406
aa(lp6407
(lp6408
S'0.84268862009'
p6409
aS'0.84268862009'
p6410
aS'0.84268862009'
p6411
aS'0.84268862009'
p6412
aS'0.84268862009'
p6413
aS'0.84268862009'
p6414
aS'0.84268862009'
p6415
aS'0.84268862009'
p6416
aS'0.84268862009'
p6417
aS'0.84268862009'
p6418
aS'0.84268862009'
p6419
aS'0.84268862009'
p6420
aS'0.84268862009'
p6421
aS'0.84268862009'
p6422
aS'0.84268862009'
p6423
aatp6424
a((lp6425
(lp6426
S'Evergreen'
p6427
aS'Spruce'
p6428
aS'Cottonwood'
p6429
aS'harmonica'
p6430
aS'Cup'
p6431
aS'calendar'
p6432
aS'belt'
p6433
aS'shirt'
p6434
aS'robe'
p6435
aS'banjo'
p6436
aS'ukulele'
p6437
aa(lp6438
(lp6439
S'0.891218483448'
p6440
aS'0.891218483448'
p6441
aS'0.891218483448'
p6442
aS'0.891218483448'
p6443
aS'0.891218483448'
p6444
aS'0.891218483448'
p6445
aS'0.891218483448'
p6446
aS'0.891218483448'
p6447
aS'0.891218483448'
p6448
aS'0.927464842796'
p6449
aS'0.927464842796'
p6450
aatp6451
a((lp6452
(lp6453
g277
aa(lp6454
(lp6455
F0.0
aatp6456
a((lp6457
(lp6458
g277
aa(lp6459
(lp6460
F0.1
aatp6461
a((lp6462
(lp6463
g277
aa(lp6464
(lp6465
F0.2
aatp6466
a((lp6467
(lp6468
g277
aa(lp6469
(lp6470
F0.3
aatp6471
a((lp6472
(lp6473
g277
aa(lp6474
(lp6475
F0.4
aatp6476
a((lp6477
(lp6478
g277
aa(lp6479
(lp6480
F0.5
aatp6481
a((lp6482
(lp6483
g277
aa(lp6484
(lp6485
F0.6
aatp6486
a((lp6487
(lp6488
g277
aa(lp6489
(lp6490
F0.7
aatp6491
aVFOLLOWING IS DATA FOR debugF4JQ78:debugI90DQT
p6492
a((lp6493
(lp6494
S'tongue'
p6495
aS'Florida'
p6496
aS'hair'
p6497
aS'pancreas'
p6498
aS'lemon'
p6499
aS'pomegranate'
p6500
aS'Clementine'
p6501
aS'Kansas'
p6502
aS'moose'
p6503
aS'tooth'
p6504
aS'sheep'
p6505
aa(lp6506
(lp6507
S'0.821697473526'
p6508
aS'0.821697473526'
p6509
aS'0.821697473526'
p6510
aS'0.821697473526'
p6511
aS'0.821697473526'
p6512
aS'0.821697473526'
p6513
aS'0.821697473526'
p6514
aS'0.821697473526'
p6515
aS'0.821697473526'
p6516
aS'0.814816653728'
p6517
aS'0.909090936184'
p6518
aatp6519
a((lp6520
(lp6521
S'Beetle'
p6522
aS'llama'
p6523
aS'Texas'
p6524
aS'Ohio'
p6525
aS'Alaska'
p6526
aS'chrysalis'
p6527
aS'Oak'
p6528
aS'Grove'
p6529
aS'rutabaga'
p6530
aS'Barb'
p6531
aa(lp6532
(lp6533
S'0.744868457317'
p6534
aS'0.744868457317'
p6535
aS'0.744868457317'
p6536
aS'0.744868457317'
p6537
aS'0.744868457317'
p6538
aS'0.909090936184'
p6539
aS'0.872924387455'
p6540
aS'0.872924387455'
p6541
aS'0.719734072685'
p6542
aS'0.719734072685'
p6543
aatp6544
a((lp6545
(lp6546
S'karamba'
p6547
aS'Cottonwood'
p6548
aS'calendar'
p6549
aS'cup'
p6550
aS'Evergreen'
p6551
aS'harmonica'
p6552
aS'blender'
p6553
aS'mixer'
p6554
aS'belt'
p6555
aS'robe'
p6556
aS'jumper'
p6557
aS'banjo'
p6558
aS'cup'
p6559
aS'with'
p6560
aS'accessibility'
p6561
aa(lp6562
(lp6563
S'0.756768524647'
p6564
aS'0.756768524647'
p6565
aS'0.756768524647'
p6566
aS'0.853507697582'
p6567
aS'0.812649667263'
p6568
aS'0.872526168823'
p6569
aS'0.872526168823'
p6570
aS'0.872526168823'
p6571
aS'0.872526168823'
p6572
aS'0.872526168823'
p6573
aS'0.765160918236'
p6574
aS'0.800020158291'
p6575
aS'0.889718234539'
p6576
aS'0.889718234539'
p6577
aS'0.889718234539'
p6578
aatp6579
a((lp6580
(lp6581
S'Lobby'
p6582
aS'artichoke'
p6583
aS'spinach'
p6584
aS'garlic'
p6585
aS'Iran'
p6586
aS'Egypt'
p6587
aS'potato'
p6588
aS'jacket'
p6589
aS'artichoke'
p6590
aS'closet'
p6591
aa(lp6592
(lp6593
S'0.797159612179'
p6594
aS'0.852764308453'
p6595
aS'0.812036216259'
p6596
aS'0.804415643215'
p6597
aS'0.862586855888'
p6598
aS'0.865638196468'
p6599
aS'0.813275575638'
p6600
aS'0.842438340187'
p6601
aS'0.852764368057'
p6602
aS'0.78074836731'
p6603
aatp6604
a((lp6605
(lp6606
S'cat'
p6607
aS'chisel'
p6608
aS'leopard'
p6609
aS'Switzerland'
p6610
aS'England'
p6611
aS'Japan'
p6612
aS'squirrel'
p6613
aS'bolts'
p6614
aS'clarinet'
p6615
aS'protractor'
p6616
aa(lp6617
(lp6618
S'0.899728119373'
p6619
aS'0.899728119373'
p6620
aS'0.805249989033'
p6621
aS'0.805249989033'
p6622
aS'0.805249989033'
p6623
aS'0.805249989033'
p6624
aS'0.801953971386'
p6625
aS'0.855654060841'
p6626
aS'0.83122330904'
p6627
aS'0.819715440273'
p6628
aatp6629
a((lp6630
(lp6631
S'ankle'
p6632
aS'finger'
p6633
aS'worm'
p6634
aS'lip'
p6635
aS'xylophone'
p6636
aS'accordion'
p6637
aS'bongos'
p6638
aS'Willow'
p6639
aS'eucalyptus'
p6640
aa(lp6641
(lp6642
S'0.736812353134'
p6643
aS'0.736812353134'
p6644
aS'0.736812353134'
p6645
aS'0.736812353134'
p6646
aS'0.877496480942'
p6647
aS'0.877496480942'
p6648
aS'0.823020517826'
p6649
aS'0.789687156677'
p6650
aS'0.811978340149'
p6651
aatp6652
a((lp6653
(lp6654
S'tuba'
p6655
aS'hip'
p6656
aS'pelvis'
p6657
aS'Piccolo'
p6658
aS'Paris'
p6659
aS'stomach'
p6660
aS'arms'
p6661
aS'mug'
p6662
aS'Dallas'
p6663
aS'Montreal'
p6664
aa(lp6665
(lp6666
S'0.744369149208'
p6667
aS'0.744369149208'
p6668
aS'0.873112678528'
p6669
aS'0.873112678528'
p6670
aS'0.82010871172'
p6671
aS'0.798141956329'
p6672
aS'0.809243261814'
p6673
aS'0.848588228226'
p6674
aS'0.777017056942'
p6675
aS'0.848588049412'
p6676
aatp6677
a((lp6678
(lp6679
S'celery'
p6680
aS'Pig'
p6681
aS'viola'
p6682
aS'zebra'
p6683
aS'Ethiopia'
p6684
aS'Poland'
p6685
aS'elephant'
p6686
aS'base'
p6687
aS'maracas'
p6688
ag70
aS'think'
p6689
ag70
aS'said'
p6690
aS'yams'
p6691
aa(lp6692
(lp6693
S'0.774434328079'
p6694
aS'0.774434328079'
p6695
aS'0.774434328079'
p6696
aS'0.822162151337'
p6697
aS'0.822162151337'
p6698
aS'0.735965490341'
p6699
aS'0.735965490341'
p6700
aS'0.735965490341'
p6701
aS'0.735965490341'
p6702
aS'0.932708919048'
p6703
aS'0.932708919048'
p6704
aS'0.932708919048'
p6705
aS'0.932708919048'
p6706
aS'0.932708919048'
p6707
aatp6708
a((lp6709
(lp6710
g277
aa(lp6711
(lp6712
F0.0
aatp6713
a((lp6714
(lp6715
g277
aa(lp6716
(lp6717
F0.1
aatp6718
a((lp6719
(lp6720
g277
aa(lp6721
(lp6722
F0.2
aatp6723
a((lp6724
(lp6725
g277
aa(lp6726
(lp6727
F0.3
aatp6728
a((lp6729
(lp6730
g277
aa(lp6731
(lp6732
F0.4
aatp6733
a((lp6734
(lp6735
g277
aa(lp6736
(lp6737
F0.5
aatp6738
a((lp6739
(lp6740
g277
aa(lp6741
(lp6742
F0.6
aatp6743
a((lp6744
(lp6745
g277
aa(lp6746
(lp6747
F0.7
aatp6748
aVFOLLOWING IS DATA FOR debug8NIU5A:debugJTGEJP
p6749
a((lp6750
(lp6751
S'sheep'
p6752
aS'shoulder'
p6753
aS'foot'
p6754
aS'elbow'
p6755
aS'aubergine'
p6756
aS'Toronto'
p6757
aS'Panther'
p6758
aa(lp6759
(lp6760
S'0.804944813251'
p6761
aS'0.804944813251'
p6762
aS'0.804944813251'
p6763
aS'0.804944813251'
p6764
aS'0.642225563526'
p6765
aS'0.741775870323'
p6766
aS'0.741775870323'
p6767
aatp6768
a((lp6769
(lp6770
S'clarinet'
p6771
aS'leopard'
p6772
aS'cat'
p6773
aS'France'
p6774
aS'Japan'
p6775
aS'piano'
p6776
aS'kazoo'
p6777
aS'saw'
p6778
aS'chisel'
p6779
aS'squirrel'
p6780
aa(lp6781
(lp6782
S'0.850541114807'
p6783
aS'0.850541114807'
p6784
aS'0.850541114807'
p6785
aS'0.841472029686'
p6786
aS'0.900990903378'
p6787
aS'0.822695553303'
p6788
aS'0.850064992905'
p6789
aS'0.792584776878'
p6790
aS'0.856563210487'
p6791
aS'0.802097439766'
p6792
aatp6793
a((lp6794
(lp6795
S'cup'
p6796
aS'spruce'
p6797
aS'evergreen'
p6798
aS'Oak'
p6799
aS'ukulele'
p6800
aS'banjo'
p6801
aS'harmonica'
p6802
aS'marimba'
p6803
aS'Cottonwood'
p6804
aa(lp6805
(lp6806
S'0.85353499651'
p6807
aS'0.791965663433'
p6808
aS'0.812652230263'
p6809
aS'0.785360336304'
p6810
aS'0.820119380951'
p6811
aS'0.810372412205'
p6812
aS'0.812111437321'
p6813
aS'0.76285725832'
p6814
aS'0.909090936184'
p6815
aatp6816
a((lp6817
(lp6818
S'giraffe'
p6819
aS'Mouse'
p6820
aS'horse'
p6821
aS'tangelo'
p6822
aS'kiwi'
p6823
aS'strawberry'
p6824
aa(lp6825
(lp6826
S'0.806265592575'
p6827
aS'0.678123950958'
p6828
aS'0.678123950958'
p6829
aS'0.853934764862'
p6830
aS'0.853934764862'
p6831
aS'0.785321056843'
p6832
aatp6833
a((lp6834
(lp6835
S'Elm'
p6836
aS'fig'
p6837
aS'raspberry'
p6838
aS'plum'
p6839
aS'honeydew'
p6840
aS'cello'
p6841
aS'violin'
p6842
aS'saxophone'
p6843
aS'triangle'
p6844
aS'wedge'
p6845
aS'trying'
p6846
aS'maple'
p6847
aa(lp6848
(lp6849
S'0.784930944443'
p6850
aS'0.789583742619'
p6851
aS'0.784365713596'
p6852
aS'0.792069613934'
p6853
aS'0.774530291557'
p6854
aS'0.85069334507'
p6855
aS'0.814532518387'
p6856
aS'0.846855521202'
p6857
aS'0.815488815308'
p6858
aS'0.806931912899'
p6859
aS'0.909090936184'
p6860
aS'0.78390622139'
p6861
aatp6862
a((lp6863
(lp6864
S'Clementine'
p6865
aS'women'
p6866
aS'rib'
p6867
aS'tooth'
p6868
aS'hair'
p6869
aS'Iowa'
p6870
aS'Florida'
p6871
aS'Michigan'
p6872
aS'moose'
p6873
aS'antelope'
p6874
aS'pear'
p6875
aa(lp6876
(lp6877
S'0.780292868614'
p6878
aS'0.780292868614'
p6879
aS'0.780292868614'
p6880
aS'0.780292868614'
p6881
aS'0.780292868614'
p6882
aS'0.865310549736'
p6883
aS'0.865310549736'
p6884
aS'0.885151267052'
p6885
aS'0.809424996376'
p6886
aS'0.810124337673'
p6887
aS'0.810697078705'
p6888
aatp6889
a((lp6890
(lp6891
S'Ethiopia'
p6892
aS'Australia'
p6893
aS'Italy'
p6894
aS'Poland'
p6895
aS'elephant'
p6896
aS'zebra'
p6897
aS'lion'
p6898
aS'Pig'
p6899
aS'maracas'
p6900
aa(lp6901
(lp6902
S'0.666177868843'
p6903
aS'0.666177868843'
p6904
aS'0.911294817924'
p6905
aS'0.819864571095'
p6906
aS'0.812106788158'
p6907
aS'0.812765181065'
p6908
aS'0.801705956459'
p6909
aS'0.784315824509'
p6910
aS'0.81428527832'
p6911
aatp6912
a((lp6913
(lp6914
S'wasp'
p6915
aS'okra'
p6916
aS'Ginger'
p6917
aS'llama'
p6918
aS'Ohio'
p6919
aS'Pennsylvania'
p6920
aS'Alaska'
p6921
aS'beetle'
p6922
aS'chrysalis'
p6923
aa(lp6924
(lp6925
S'0.853819012642'
p6926
aS'0.853819012642'
p6927
aS'0.853819012642'
p6928
aS'0.853819012642'
p6929
aS'0.786142766476'
p6930
aS'0.786142766476'
p6931
aS'0.786142766476'
p6932
aS'0.786142766476'
p6933
aS'0.826332569122'
p6934
aatp6935
a((lp6936
(lp6937
g277
aa(lp6938
(lp6939
F0.0
aatp6940
a((lp6941
(lp6942
g277
aa(lp6943
(lp6944
F0.1
aatp6945
a((lp6946
(lp6947
g277
aa(lp6948
(lp6949
F0.2
aatp6950
a((lp6951
(lp6952
g277
aa(lp6953
(lp6954
F0.3
aatp6955
a((lp6956
(lp6957
g277
aa(lp6958
(lp6959
F0.4
aatp6960
a((lp6961
(lp6962
g277
aa(lp6963
(lp6964
F0.5
aatp6965
a((lp6966
(lp6967
g277
aa(lp6968
(lp6969
F0.6
aatp6970
a((lp6971
(lp6972
g277
aa(lp6973
(lp6974
F0.7
aatp6975
aVFOLLOWING IS DATA FOR debugGPOMKR:debugO339U2
p6976
a((lp6977
(lp6978
S'banjo'
p6979
aS'shirt'
p6980
aS'ukulele'
p6981
aS'marimba'
p6982
aS'row'
p6983
aS'belt'
p6984
aS'jumper'
p6985
aS'spruce'
p6986
aS'evergreen'
p6987
aS'Cottonwood'
p6988
aS'blender'
p6989
aS'mixer'
p6990
aS'colander'
p6991
aS'Oak'
p6992
aa(lp6993
(lp6994
S'0.756043374538'
p6995
aS'0.756043374538'
p6996
aS'0.756043374538'
p6997
aS'0.756043374538'
p6998
aS'0.756043374538'
p6999
aS'0.756043374538'
p7000
aS'0.756043374538'
p7001
aS'0.791613638401'
p7002
aS'0.856487929821'
p7003
aS'0.856487929821'
p7004
aS'0.812664747238'
p7005
aS'0.849895954132'
p7006
aS'0.814785838127'
p7007
aS'0.785626292229'
p7008
aatp7009
a((lp7010
(lp7011
S'hammer'
p7012
aS'wedge'
p7013
aS'screws'
p7014
aS'wire'
p7015
aS'triangle'
p7016
aS'Hickory'
p7017
aS'maple'
p7018
aS'plum'
p7019
aS'raspberry'
p7020
aS'honeydew'
p7021
aS'Pine'
p7022
aa(lp7023
(lp7024
S'0.782917559147'
p7025
aS'0.806929528713'
p7026
aS'0.809242546558'
p7027
aS'0.81237590313'
p7028
aS'0.815515577793'
p7029
aS'0.786129593849'
p7030
aS'0.783985555172'
p7031
aS'0.792002677917'
p7032
aS'0.784396052361'
p7033
aS'0.774529397488'
p7034
aS'0.813704788685'
p7035
aatp7036
a((lp7037
(lp7038
S'Iowa'
p7039
aS'Michigan'
p7040
aS'Kansas'
p7041
aS'Florida'
p7042
aS'racoon'
p7043
aS'moose'
p7044
aS'monkey'
p7045
aS'tongue'
p7046
aS'pancreas'
p7047
aS'rib'
p7048
aS'tooth'
p7049
aS'Clementine'
p7050
aS'lemon'
p7051
aS'pear'
p7052
aS'pomegranate'
p7053
aa(lp7054
(lp7055
S'0.872700810432'
p7056
aS'0.885151267052'
p7057
aS'0.847962379456'
p7058
aS'0.909767568111'
p7059
aS'0.847833096981'
p7060
aS'0.808965563774'
p7061
aS'0.771042048931'
p7062
aS'0.828146398067'
p7063
aS'0.783540248871'
p7064
aS'0.808277785778'
p7065
aS'0.814379394054'
p7066
aS'0.847262203693'
p7067
aS'0.794190704823'
p7068
aS'0.810241758823'
p7069
aS'0.847916662693'
p7070
aatp7071
a((lp7072
(lp7073
S'Tokyo'
p7074
aS'Vancouver'
p7075
aS'California'
p7076
aS'Hawaii'
p7077
aS'Wisconsin'
p7078
aS'kumquat'
p7079
aS'washer'
p7080
aS'nuts'
p7081
aS'glue'
p7082
aS'Clementine'
p7083
aS'lemon'
p7084
aa(lp7085
(lp7086
S'0.847678005695'
p7087
aS'0.840813875198'
p7088
aS'0.876239836216'
p7089
aS'0.898597002029'
p7090
aS'0.897291064262'
p7091
aS'0.850477695465'
p7092
aS'0.81042855978'
p7093
aS'0.846979558468'
p7094
aS'0.777473092079'
p7095
aS'0.847345650196'
p7096
aS'0.794190645218'
p7097
aatp7098
a((lp7099
(lp7100
S'skillet'
p7101
aS'toaster'
p7102
aS'Fork'
p7103
aS'nice'
p7104
aS'Lily'
p7105
aS'sunflower'
p7106
aS'narcissus'
p7107
aS'Daisy'
p7108
aS'dress'
p7109
aS'girdle'
p7110
aS'underwear'
p7111
aS'Montana'
p7112
aS'Utah'
p7113
aS'Maine'
p7114
aa(lp7115
(lp7116
S'0.849719941616'
p7117
aS'0.81159734726'
p7118
aS'0.909090936184'
p7119
aS'0.909090936184'
p7120
aS'0.807060003281'
p7121
aS'0.951360404491'
p7122
aS'0.951360404491'
p7123
aS'0.951360404491'
p7124
aS'0.756888985634'
p7125
aS'0.756888985634'
p7126
aS'0.804282844067'
p7127
aS'0.893630087376'
p7128
aS'0.875406205654'
p7129
aS'0.901803672314'
p7130
aatp7131
a((lp7132
(lp7133
S'Reno'
p7134
aS'Chicago'
p7135
aS'Berlin'
p7136
aS'Hornet'
p7137
aS'millipede'
p7138
aS'trousers'
p7139
aS'Sycamore'
p7140
aS'cheek'
p7141
aS'poem'
p7142
aS'Cedar'
p7143
aa(lp7144
(lp7145
S'0.835472166538'
p7146
aS'0.663888335228'
p7147
aS'0.663888335228'
p7148
aS'0.877274751663'
p7149
aS'0.877274751663'
p7150
aS'0.844499289989'
p7151
aS'0.913155853748'
p7152
aS'0.913155853748'
p7153
aS'0.913155853748'
p7154
aS'0.692829668522'
p7155
aatp7156
a((lp7157
(lp7158
S'okra'
p7159
aS'Ginger'
p7160
aS'rhinoceros'
p7161
aS'termite'
p7162
aS'rabbit'
p7163
aS'llama'
p7164
aS'Ohio'
p7165
aS'rutabaga'
p7166
aS'pumpkin'
p7167
aa(lp7168
(lp7169
S'0.826115489006'
p7170
aS'0.811455190182'
p7171
aS'0.826999545097'
p7172
aS'0.810269713402'
p7173
aS'0.766702532768'
p7174
aS'0.811692297459'
p7175
aS'0.906692266464'
p7176
aS'0.807884454727'
p7177
aS'0.800970137119'
p7178
aatp7179
a((lp7180
(lp7181
S'finger'
p7182
aS'ankle'
p7183
aS'lip'
p7184
aS'larva'
p7185
aS'scorpion'
p7186
aS'monarch'
p7187
aS'Bongos'
p7188
aS'accordion'
p7189
aS'guitar'
p7190
aS'xylophone'
p7191
aS'Willow'
p7192
aS'eucalyptus'
p7193
aS'Poplar'
p7194
aa(lp7195
(lp7196
S'0.814420223236'
p7197
aS'0.768756151199'
p7198
aS'0.79431438446'
p7199
aS'0.775577008724'
p7200
aS'0.828598916531'
p7201
aS'0.78691136837'
p7202
aS'0.864554047585'
p7203
aS'0.864554047585'
p7204
aS'0.809921562672'
p7205
aS'0.814956307411'
p7206
aS'0.789686858654'
p7207
aS'0.811964035034'
p7208
aS'0.799554407597'
p7209
aatp7210
a((lp7211
(lp7212
g277
aa(lp7213
(lp7214
F0.0
aatp7215
a((lp7216
(lp7217
g277
aa(lp7218
(lp7219
F0.1
aatp7220
a((lp7221
(lp7222
g277
aa(lp7223
(lp7224
F0.2
aatp7225
a((lp7226
(lp7227
g277
aa(lp7228
(lp7229
F0.3
aatp7230
a((lp7231
(lp7232
g277
aa(lp7233
(lp7234
F0.4
aatp7235
a((lp7236
(lp7237
g277
aa(lp7238
(lp7239
F0.5
aatp7240
a((lp7241
(lp7242
g277
aa(lp7243
(lp7244
F0.6
aatp7245
a((lp7246
(lp7247
g277
aa(lp7248
(lp7249
F0.7
aatp7250
aS'FOLLOWING IS DATA FOR debugZANF1E:debugNSAB89'
p7251
a((lp7252
(lp7253
S'gloves'
p7254
aS'mantis'
p7255
aS'Palm'
p7256
aS'sweater'
p7257
aS'millipede'
p7258
aS'teak'
p7259
aS'Chicago'
p7260
aS'Sydney'
p7261
aS'Reno'
p7262
aS'bra'
p7263
aS'trousers'
p7264
aS'Berlin'
p7265
aS'mosquito'
p7266
aa(lp7267
(lp7268
S'0.847636163235'
p7269
aS'0.807157278061'
p7270
aS'0.717992842197'
p7271
aS'0.857367515564'
p7272
aS'0.832603096962'
p7273
aS'0.850975036621'
p7274
aS'0.850975036621'
p7275
aS'0.800536036491'
p7276
aS'0.835470497608'
p7277
aS'0.85025459528'
p7278
aS'0.844499111176'
p7279
aS'0.847521901131'
p7280
aS'0.805335462093'
p7281
aatp7282
a((lp7283
(lp7284
S'kazoo'
p7285
aS'clarinet'
p7286
aS'drums'
p7287
aS'piano'
p7288
aS'leopard'
p7289
aS'cat'
p7290
aS'France'
p7291
aS'Japan'
p7292
aS'Switzerland'
p7293
aS'bolts'
p7294
aS'protractor'
p7295
aS'chisel'
p7296
aa(lp7297
(lp7298
S'0.759521961212'
p7299
aS'0.759521961212'
p7300
aS'0.954213738441'
p7301
aS'0.822486817837'
p7302
aS'0.813295245171'
p7303
aS'0.957420825958'
p7304
aS'0.697092711926'
p7305
aS'0.697092711926'
p7306
aS'0.887881278992'
p7307
aS'0.854050695896'
p7308
aS'0.819704830647'
p7309
aS'0.856563091278'
p7310
aatp7311
a((lp7312
(lp7313
S'Olive'
p7314
aS'foot'
p7315
aS'kidney'
p7316
aS'squash'
p7317
aS'Stockholm'
p7318
aS'Miami'
p7319
aS'aubergine'
p7320
aS'sheep'
p7321
aS'wolf'
p7322
aS'Miami'
p7323
aS'squash'
p7324
aa(lp7325
(lp7326
S'0.551018416882'
p7327
aS'0.807348966599'
p7328
aS'0.788471639156'
p7329
aS'0.845378816128'
p7330
aS'0.836330890656'
p7331
aS'0.858709156513'
p7332
aS'0.987629055977'
p7333
aS'0.856922984123'
p7334
aS'0.856922984123'
p7335
aS'0.858524143696'
p7336
aS'0.845382213593'
p7337
aatp7338
a((lp7339
(lp7340
S'Viola'
p7341
aS'Ethiopia'
p7342
aS'Italy'
p7343
aS'Poland'
p7344
aS'elephant'
p7345
aS'yams'
p7346
aS'squash'
p7347
aS'celery'
p7348
aS'zebra'
p7349
aa(lp7350
(lp7351
S'0.984496295452'
p7352
aS'0.984496295452'
p7353
aS'0.984496295452'
p7354
aS'0.984496295452'
p7355
aS'0.810779988766'
p7356
aS'0.847938001156'
p7357
aS'0.700691580772'
p7358
aS'0.700691580772'
p7359
aS'0.812765538692'
p7360
aatp7361
a((lp7362
(lp7363
S'pelvis'
p7364
aS'Dallas'
p7365
aS'Paris'
p7366
aS'Rome'
p7367
aS'broiler'
p7368
aS'hip'
p7369
aS'trumpet'
p7370
aS'stomach'
p7371
aS'Montreal'
p7372
aS'Piccolo'
p7373
aa(lp7374
(lp7375
S'0.847515761852'
p7376
aS'0.778591632843'
p7377
aS'0.858799695969'
p7378
aS'0.85630428791'
p7379
aS'0.811057567596'
p7380
aS'0.734429299831'
p7381
aS'0.839157223701'
p7382
aS'0.797461152077'
p7383
aS'0.848587155342'
p7384
aS'0.851383566856'
p7385
aatp7386
a((lp7387
(lp7388
S'Alaska'
p7389
aS'rhinoceros'
p7390
aS'rutabaga'
p7391
aS'Pennsylvania'
p7392
aS'Texas'
p7393
aS'okra'
p7394
aS'chrysalis'
p7395
aS'beetle'
p7396
aS'Ginger'
p7397
aa(lp7398
(lp7399
S'0.892703771591'
p7400
aS'0.892703771591'
p7401
aS'0.80788475275'
p7402
aS'0.886858165264'
p7403
aS'0.88842266798'
p7404
aS'0.826113581657'
p7405
aS'0.826337814331'
p7406
aS'0.850463449955'
p7407
aS'0.81146466732'
p7408
aatp7409
a((lp7410
(lp7411
S'Florida'
p7412
aS'Kansas'
p7413
aS'Iowa'
p7414
aS'racoon'
p7415
aS'antelope'
p7416
aS'monkey'
p7417
aS'rib'
p7418
aS'pancreas'
p7419
aS'tooth'
p7420
aS'lemon'
p7421
aS'pomegranate'
p7422
aS'Clementine'
p7423
aS'pear'
p7424
aa(lp7425
(lp7426
S'0.909767925739'
p7427
aS'0.84796255827'
p7428
aS'0.872700273991'
p7429
aS'0.847833096981'
p7430
aS'0.810124456882'
p7431
aS'0.77103894949'
p7432
aS'0.808928370476'
p7433
aS'0.783540189266'
p7434
aS'0.514669179916'
p7435
aS'0.794229745865'
p7436
aS'0.847917497158'
p7437
aS'0.847345590591'
p7438
aS'0.810120105743'
p7439
aatp7440
a((lp7441
(lp7442
S'ear'
p7443
aS'base'
p7444
aS'nahko'
p7445
aS'heart'
p7446
aS'Barn'
p7447
aS'gazebo'
p7448
aS'kitchen'
p7449
aS'Alcove'
p7450
aS'tulip'
p7451
aS'petunia'
p7452
aS'Carnation'
p7453
aS'Rose'
p7454
aS'tiger'
p7455
aS'hippopotamus'
p7456
aS'donkey'
p7457
aa(lp7458
(lp7459
S'0.680248439312'
p7460
aS'0.680248439312'
p7461
aS'0.680248439312'
p7462
aS'0.680248439312'
p7463
aS'0.810537397861'
p7464
aS'0.742069482803'
p7465
aS'0.742069482803'
p7466
aS'0.811649501324'
p7467
aS'0.880385875702'
p7468
aS'0.880385875702'
p7469
aS'0.720262289047'
p7470
aS'0.720262289047'
p7471
aS'0.789999365807'
p7472
aS'0.789999365807'
p7473
aS'0.811264514923'
p7474
aatp7475
a((lp7476
(lp7477
g277
aa(lp7478
(lp7479
F0.0
aatp7480
a((lp7481
(lp7482
g277
aa(lp7483
(lp7484
F0.1
aatp7485
a((lp7486
(lp7487
g277
aa(lp7488
(lp7489
F0.2
aatp7490
a((lp7491
(lp7492
g277
aa(lp7493
(lp7494
F0.3
aatp7495
a((lp7496
(lp7497
g277
aa(lp7498
(lp7499
F0.4
aatp7500
a((lp7501
(lp7502
g277
aa(lp7503
(lp7504
F0.5
aatp7505
a((lp7506
(lp7507
g277
aa(lp7508
(lp7509
F0.6
aatp7510
a((lp7511
(lp7512
g277
aa(lp7513
(lp7514
F0.7
aatp7515
aS'FOLLOWING IS DATA FOR debugQVC5IH:debugWA2XJU'
p7516
a((lp7517
(lp7518
S'broccoli'
p7519
aS'cauliflower'
p7520
aS'onion'
p7521
aS'griddle'
p7522
aS'Dahlia'
p7523
aS'saucer'
p7524
aS'Azalea'
p7525
aa(lp7526
(lp7527
S'0.84689861536'
p7528
aS'0.869387030602'
p7529
aS'0.869387030602'
p7530
aS'0.816434979439'
p7531
aS'0.857804179192'
p7532
aS'0.808310925961'
p7533
aS'0.844535648823'
p7534
aatp7535
a((lp7536
(lp7537
S'furnace'
p7538
aS'chimney'
p7539
aS'Cuba'
p7540
aS'Germany'
p7541
aS'artichoke'
p7542
aS'spinach'
p7543
aS'potato'
p7544
aS'blouse'
p7545
aS'suit'
p7546
aS'closet'
p7547
aS'chimney'
p7548
aS'furnace'
p7549
aa(lp7550
(lp7551
S'0.895723521709'
p7552
aS'0.895723521709'
p7553
aS'0.680648863316'
p7554
aS'0.680648863316'
p7555
aS'0.951623082161'
p7556
aS'0.951623082161'
p7557
aS'0.813285470009'
p7558
aS'0.807447850704'
p7559
aS'0.775204777718'
p7560
aS'0.780749261379'
p7561
aS'0.743483126163'
p7562
aS'0.743483126163'
p7563
aatp7564
a((lp7565
(lp7566
S'tuba'
p7567
aS'trumpet'
p7568
aS'trampoline'
p7569
aS'arms'
p7570
aS'all'
p7571
aS'of'
p7572
aS'this'
p7573
aS'Paris'
p7574
aS'oven'
p7575
aa(lp7576
(lp7577
S'0.766883075237'
p7578
aS'0.839156270027'
p7579
aS'0.987629055977'
p7580
aS'0.754035592079'
p7581
aS'0.754035592079'
p7582
aS'0.754035592079'
p7583
aS'0.754035592079'
p7584
aS'0.802555680275'
p7585
aS'0.498467296362'
p7586
aatp7587
a((lp7588
(lp7589
S'tooth'
p7590
aS'red'
p7591
aS'pancreas'
p7592
aS'Clementine'
p7593
aS'hair'
p7594
aS'bolts'
p7595
aS'lemon'
p7596
aS'Iowa'
p7597
aS'Florida'
p7598
aS'Michigan'
p7599
aS'moose'
p7600
aS'monkey'
p7601
aa(lp7602
(lp7603
S'0.656085073948'
p7604
aS'0.732994794846'
p7605
aS'0.812083125114'
p7606
aS'0.887571156025'
p7607
aS'0.887571156025'
p7608
aS'0.909090936184'
p7609
aS'0.793071269989'
p7610
aS'0.865238428116'
p7611
aS'0.865238428116'
p7612
aS'0.885151267052'
p7613
aS'0.789112746716'
p7614
aS'0.814278185368'
p7615
aatp7616
a((lp7617
(lp7618
S'Carnation'
p7619
aS'Rose'
p7620
aS'tulip'
p7621
aS'Target'
p7622
aS'hippopotamus'
p7623
aS'Alcove'
p7624
aa(lp7625
(lp7626
S'0.822680473328'
p7627
aS'0.822680473328'
p7628
aS'0.822680473328'
p7629
aS'0.724316596985'
p7630
aS'0.724316596985'
p7631
aS'0.811649024487'
p7632
aatp7633
a((lp7634
(lp7635
S'pot'
p7636
aS'Mouse'
p7637
aS'Angelo'
p7638
aS'Corridor'
p7639
aS'door'
p7640
aS'kiwi'
p7641
aS'guava'
p7642
aS'refrigerator'
p7643
aS'cow'
p7644
aa(lp7645
(lp7646
S'0.752080500126'
p7647
aS'0.752080500126'
p7648
aS'0.752080500126'
p7649
aS'0.752080500126'
p7650
aS'0.752080500126'
p7651
aS'0.933233261108'
p7652
aS'0.933233261108'
p7653
aS'0.933233261108'
p7654
aS'0.815470099449'
p7655
aatp7656
a((lp7657
(lp7658
S'marimba'
p7659
aS'mixer'
p7660
aS'banjo'
p7661
aS'top'
p7662
aS'10'
p7663
aa(lp7664
(lp7665
S'0.710651636124'
p7666
aS'0.710651636124'
p7667
aS'0.800020158291'
p7668
aS'0.29174593091'
p7669
aS'0.29174593091'
p7670
aatp7671
a((lp7672
(lp7673
S'worm'
p7674
aS'scorpion'
p7675
aS'Mark'
p7676
aS'monarch'
p7677
aS'butterfly'
p7678
aS'Willow'
p7679
aS'lamp'
p7680
aS'xylophone'
p7681
aS'arms'
p7682
aS'finger'
p7683
aS'Ash'
p7684
aS'caterpillar'
p7685
aS'eucalyptus'
p7686
aa(lp7687
(lp7688
S'0.849063277245'
p7689
aS'0.855424880981'
p7690
aS'0.855424880981'
p7691
aS'0.855424880981'
p7692
aS'0.855424880981'
p7693
aS'0.909090936184'
p7694
aS'0.909090936184'
p7695
aS'0.909090936184'
p7696
aS'0.909090936184'
p7697
aS'0.814060270786'
p7698
aS'0.548766732216'
p7699
aS'0.835086643696'
p7700
aS'0.812022566795'
p7701
aatp7702
a((lp7703
(lp7704
g277
aa(lp7705
(lp7706
F0.0
aatp7707
a((lp7708
(lp7709
g277
aa(lp7710
(lp7711
F0.1
aatp7712
a((lp7713
(lp7714
g277
aa(lp7715
(lp7716
F0.2
aatp7717
a((lp7718
(lp7719
g277
aa(lp7720
(lp7721
F0.3
aatp7722
a((lp7723
(lp7724
g277
aa(lp7725
(lp7726
F0.4
aatp7727
a((lp7728
(lp7729
g277
aa(lp7730
(lp7731
F0.5
aatp7732
a((lp7733
(lp7734
g277
aa(lp7735
(lp7736
F0.6
aatp7737
a((lp7738
(lp7739
g277
aa(lp7740
(lp7741
F0.7
aatp7742
a.